(lp0
(lp1
F0.7537100911140442
aF0.7090838551521301
aF0.6731104850769043
aF0.6544438600540161
aF0.6668954491615295
aF0.6315103769302368
aF0.6210547089576721
aF0.6036463975906372
aF0.5761946439743042
aF0.5824752449989319
aF0.5536378026008606
aF0.5515508055686951
aF0.533730149269104
aF0.5202601552009583
aF0.5030858516693115
aF0.501723051071167
aF0.4760357141494751
aF0.45237427949905396
aF0.43762511014938354
aF0.40845614671707153
aF0.38519856333732605
aF0.3755649924278259
aF0.33815276622772217
aF0.3200003504753113
aF0.3087093234062195
aF0.2901510000228882
aF0.2564927935600281
aF0.2519114017486572
aF0.23160827159881592
aF0.23864148557186127
aF0.20283319056034088
aF0.20962783694267273
aF0.1810368299484253
aF0.17529281973838806
aF0.16419267654418945
aF0.1776568442583084
aF0.15505985915660858
aF0.14795172214508057
aF0.16393893957138062
aF0.13660332560539246
aF0.1519605964422226
aF0.13852322101593018
aF0.127578467130661
aF0.14974090456962585
aF0.13093867897987366
aF0.11622345447540283
aF0.1133074015378952
aF0.1268911063671112
aF0.13598693907260895
aF0.114205002784729
aF0.1390209048986435
aF0.10889187455177307
aF0.1283232569694519
aF0.09213374555110931
aF0.13405519723892212
aF0.10012012720108032
aF0.11103365570306778
aF0.0935564860701561
aF0.10453484952449799
aF0.11035717278718948
aF0.09693631529808044
aF0.10958428680896759
aF0.08762214332818985
aF0.07967443764209747
aF0.1151394471526146
aF0.11762405186891556
aF0.10645551979541779
aF0.0920206606388092
aF0.09415048360824585
aF0.10095800459384918
aF0.10702764987945557
aF0.09451579302549362
aF0.09577086567878723
aF0.11332349479198456
aF0.08722832798957825
aF0.09015271067619324
aF0.08381021022796631
aF0.09006190299987793
aF0.06515835225582123
aF0.11970307677984238
aF0.09543813765048981
aF0.10523512959480286
aF0.10322833806276321
aF0.07613575458526611
aF0.10091360658407211
aF0.09634125232696533
aF0.07358065247535706
aF0.09663157165050507
aF0.10637027025222778
aF0.06704182922840118
aF0.08594857156276703
aF0.0813075378537178
aF0.07655295729637146
aF0.08452410250902176
aF0.10192655771970749
aF0.09182588756084442
aF0.10636509954929352
aF0.09476295113563538
aF0.09127678722143173
aF0.09841115772724152
aF0.08699462562799454
aF0.09399543702602386
aF0.1055125817656517
aF0.08907908201217651
aF0.09985357522964478
aF0.08138614892959595
aF0.06907801330089569
aF0.07881996035575867
aF0.07872635126113892
aF0.056084658950567245
aF0.0871206521987915
aF0.11026909947395325
aF0.08670703321695328
aF0.08072474598884583
aF0.08449661731719971
aF0.08818963170051575
aF0.08529306948184967
aF0.06538275629281998
aF0.07185651361942291
aF0.06939491629600525
aF0.09599518775939941
aF0.07545440644025803
aF0.08597250282764435
aF0.0824708417057991
aF0.08397460728883743
aF0.06720715761184692
aF0.10524401068687439
aF0.08533471077680588
aF0.08035890758037567
aF0.10220809280872345
aF0.07996401190757751
aF0.07203983515501022
aF0.07709446549415588
aF0.07978547364473343
aF0.10134869068861008
aF0.09579460322856903
aF0.07612133771181107
aF0.08957506716251373
aF0.07454626262187958
aF0.09100332111120224
aF0.0975373387336731
aF0.07841038703918457
aF0.07996667176485062
aF0.08521485328674316
aF0.07459892332553864
aF0.08254837244749069
aF0.07892974466085434
aF0.08389250189065933
aF0.05308868736028671
aF0.07780645042657852
aF0.100536048412323
aF0.07724915444850922
aF0.07914067804813385
aF0.06432272493839264
aF0.07529395818710327
aF0.09117642045021057
aF0.08210911601781845
aF0.06739841401576996
aF0.09336169064044952
aF0.09122727066278458
aF0.09847567975521088
aF0.09186656028032303
aF0.09889446943998337
aF0.08939991891384125
aF0.07303870469331741
aF0.07045259326696396
aF0.06248791515827179
aF0.08751072734594345
aF0.08565820008516312
aF0.08990953862667084
aF0.11005483567714691
aF0.07151160389184952
aF0.07226432859897614
aF0.08311940729618073
aF0.09046632051467896
aF0.05598023906350136
aF0.10948416590690613
aF0.06118523329496384
aF0.08046809583902359
aF0.09155363589525223
aF0.07981306314468384
aF0.08156978338956833
aF0.08323230594396591
aF0.08468595147132874
aF0.07100815325975418
aF0.08395668864250183
aF0.07915380597114563
aF0.07080604135990143
aF0.061341047286987305
aF0.09091675281524658
aF0.09467703104019165
aF0.07934895902872086
aF0.08552625775337219
aF0.07470931112766266
aF0.07645043730735779
aF0.0802733525633812
aF0.06121080741286278
aF0.08180661499500275
aF0.06720060855150223
aF0.0752725824713707
aF0.09047849476337433
aF0.06517171859741211
aF0.05897437408566475
aF0.0735493078827858
aF0.05561838299036026
aF0.06351444125175476
aF0.057152166962623596
aF0.08216036856174469
aF0.08012878894805908
aF0.081788569688797
aF0.10477033257484436
aF0.06542716175317764
aF0.09073871374130249
aF0.09781765937805176
aF0.07687745988368988
aF0.06634896248579025
aF0.05689362436532974
aF0.060194630175828934
aF0.07195322215557098
aF0.08670230209827423
aF0.0743613988161087
aF0.08098119497299194
aF0.08700760453939438
aF0.07653001695871353
aF0.08267990499734879
aF0.09859447181224823
aF0.08644480258226395
aF0.072809137403965
aF0.09214482456445694
aF0.08483719080686569
aF0.04169827699661255
aF0.07047707587480545
aF0.0990675538778305
aF0.07701831310987473
aF0.05671443045139313
aF0.06631720066070557
aF0.10569248348474503
aF0.07250526547431946
aF0.09255195409059525
aF0.08608119934797287
aF0.06405037641525269
aF0.055992547422647476
aF0.07656688243150711
aF0.09715874493122101
aF0.06542512029409409
aF0.0564521886408329
aF0.07386127859354019
aF0.07750693708658218
aF0.07175460457801819
aF0.08421140909194946
aF0.07213331758975983
aF0.08257287740707397
aF0.06910935789346695
aF0.0864366888999939
aF0.07380510121583939
aF0.05633463338017464
aF0.07186029851436615
aF0.07189903408288956
aF0.06453370302915573
aF0.07109694927930832
aF0.051573023200035095
aF0.0854768380522728
aF0.07982474565505981
aF0.06625232100486755
aF0.09062904864549637
aF0.06629156321287155
aF0.09921606630086899
aF0.08208367228507996
aF0.08231464773416519
aF0.07009287923574448
aF0.07834655046463013
aF0.07704802602529526
aF0.06805532425642014
aF0.0783870667219162
aF0.08702480792999268
aF0.08022060990333557
aF0.06394446641206741
aF0.06732818484306335
aF0.07487504929304123
aF0.05986256152391434
aF0.06991499662399292
aF0.06801110506057739
aF0.08302377164363861
aF0.07265394926071167
aF0.08518818765878677
aF0.07643524557352066
aF0.11161382496356964
aF0.08390217274427414
aF0.07652055472135544
aF0.07173069566488266
aF0.06401614844799042
aF0.07970388978719711
aF0.06625732779502869
aF0.08706452697515488
aF0.07028009742498398
aF0.0669669434428215
aF0.0797569751739502
aF0.06763987243175507
aF0.08256813138723373
aF0.0679570734500885
aF0.07439189404249191
aF0.07067596167325974
aF0.06040509417653084
aF0.09018206596374512
aF0.07310736179351807
aF0.08857615292072296
aF0.07160026580095291
aF0.06541857868432999
aF0.09603863209486008
aF0.08030389994382858
aF0.06711132824420929
aF0.08196374773979187
aF0.061215583235025406
aF0.08772684633731842
aF0.07669385522603989
aF0.06276800483465195
aF0.07644616067409515
aF0.06421421468257904
aF0.07677970826625824
aF0.08319035917520523
aF0.08804309368133545
aF0.075387142598629
aF0.08248263597488403
aF0.07101356238126755
aF0.07458707690238953
aF0.05988670513033867
aF0.060881711542606354
aF0.08493367582559586
aF0.061703428626060486
aF0.05422968044877052
aF0.07009778171777725
aF0.08299262076616287
aF0.08357828855514526
aF0.0611434131860733
aF0.09077467769384384
aF0.07400944083929062
aF0.08484253287315369
aF0.05274805799126625
aF0.08875531703233719
aF0.06487156450748444
aF0.08304227143526077
aF0.05622643232345581
aF0.07442890852689743
aF0.0814221054315567
aF0.07404260337352753
aF0.08199223130941391
aF0.07315295189619064
aF0.07900580018758774
aF0.08304294943809509
aF0.08074129372835159
aF0.06590790301561356
aF0.05953305959701538
aF0.0692312940955162
aF0.08290363848209381
aF0.07562001049518585
aF0.08409077674150467
aF0.06791131943464279
aF0.06751274317502975
aF0.06264977157115936
aF0.06745561212301254
aF0.0620199479162693
aF0.06736636906862259
aF0.049077022820711136
aF0.08976723253726959
aF0.07545851916074753
aF0.0811925083398819
aF0.0840391144156456
aF0.06274977326393127
aF0.07129266858100891
aF0.08590275794267654
aF0.05807170644402504
aF0.09288258850574493
aF0.08703286945819855
aF0.06115250289440155
aF0.058760061860084534
aF0.07192520052194595
aF0.05495172739028931
aF0.0752110481262207
aF0.07812709361314774
aF0.07700526714324951
aF0.08755174279212952
aF0.07888402044773102
aF0.07580947130918503
aF0.07154969125986099
aF0.07190736383199692
aF0.07794277369976044
aF0.09112219512462616
aF0.06979697942733765
aF0.07431477308273315
aF0.06072840839624405
aF0.05619313195347786
aF0.06335772573947906
aF0.06735655665397644
aF0.042875342071056366
aF0.07424642145633698
aF0.09333233535289764
aF0.07481043040752411
aF0.06204967200756073
aF0.08027560263872147
aF0.07075542956590652
aF0.07109607756137848
aF0.05480353161692619
aF0.05943875387310982
aF0.06996986269950867
aF0.07983633875846863
aF0.058481283485889435
aF0.08203127980232239
aF0.06577114760875702
aF0.07094276696443558
aF0.054833605885505676
aF0.07112792879343033
aF0.0760410726070404
aF0.06376168876886368
aF0.09265729784965515
aF0.06536043435335159
aF0.0715278834104538
aF0.07137423753738403
aF0.06656551361083984
aF0.09057282656431198
aF0.07753333449363708
aF0.06771159917116165
aF0.06206584349274635
aF0.06606655567884445
aF0.07384385913610458
aF0.07336987555027008
aF0.061065949499607086
aF0.06577784568071365
aF0.07096745073795319
aF0.06920541077852249
aF0.07211589068174362
aF0.07520423084497452
aF0.07254134863615036
aF0.051664113998413086
aF0.06602974981069565
aF0.0984024927020073
aF0.07689107954502106
aF0.06592725217342377
aF0.060156792402267456
aF0.06362086534500122
aF0.08707591891288757
aF0.07104996591806412
aF0.06090804561972618
aF0.08747244626283646
aF0.07503380626440048
aF0.09008057415485382
aF0.09526773542165756
aF0.09294223040342331
aF0.08095692098140717
aF0.0732874646782875
aF0.05954981595277786
aF0.06256125867366791
aF0.08175542205572128
aF0.07272276282310486
aF0.07820882648229599
aF0.10466266423463821
aF0.06976311653852463
aF0.06868104636669159
aF0.07419397681951523
aF0.09050429612398148
aF0.05155234411358833
aF0.09546709060668945
aF0.051312632858753204
aF0.07043677568435669
aF0.08491361886262894
aF0.07193568348884583
aF0.0740719586610794
aF0.0721452608704567
aF0.06961694359779358
aF0.06399963796138763
aF0.06265386193990707
aF0.07489848881959915
aF0.07556968182325363
aF0.0570375956594944
aF0.08485305309295654
aF0.08773308247327805
aF0.07560504972934723
aF0.07739623636007309
aF0.06787683069705963
aF0.0729854479432106
aF0.07390490919351578
aF0.05822229012846947
aF0.08262663334608078
aF0.06429391354322433
aF0.06475473195314407
aF0.08675391227006912
aF0.06060606986284256
aF0.05010068789124489
aF0.06513146311044693
aF0.048617132008075714
aF0.05154341086745262
aF0.059913311153650284
aF0.06894736737012863
aF0.07443947345018387
aF0.0758892297744751
aF0.09465952962636948
aF0.06101172789931297
aF0.08133527636528015
aF0.08890484273433685
aF0.0696164220571518
aF0.06076787784695625
aF0.05092892050743103
aF0.05985578894615173
aF0.06571818143129349
aF0.07984201610088348
aF0.07602959871292114
aF0.07579007744789124
aF0.07627584040164948
aF0.06981465220451355
aF0.06716962158679962
aF0.09568306803703308
aF0.09082268923521042
aF0.06807073205709457
aF0.0865703821182251
aF0.0688529685139656
aF0.04458446055650711
aF0.06785058975219727
aF0.08558696508407593
aF0.06089584529399872
aF0.05142531916499138
aF0.05524304881691933
aF0.1025802418589592
aF0.06210733577609062
aF0.07909857481718063
aF0.08403421193361282
aF0.05373388156294823
aF0.05132783204317093
aF0.06188390403985977
aF0.08978922665119171
aF0.05833883583545685
aF0.054924048483371735
aF0.06759923696517944
aF0.07645810395479202
aF0.06460624188184738
aF0.06902619451284409
aF0.0674828588962555
aF0.07812043279409409
aF0.05615312606096268
aF0.08133793622255325
aF0.07753098011016846
aF0.05920321121811867
aF0.06680769473314285
aF0.06661354750394821
aF0.05349113792181015
aF0.06033645197749138
aF0.04294459894299507
aF0.08248352259397507
aF0.07100807130336761
aF0.06941000372171402
aF0.08983589708805084
aF0.06729933619499207
aF0.08355309069156647
aF0.07996845245361328
aF0.07400943338871002
aF0.0664365291595459
aF0.08742054551839828
aF0.06913289427757263
aF0.06311816722154617
aF0.0760781317949295
aF0.08013647049665451
aF0.07650958001613617
aF0.05942006781697273
aF0.05828157439827919
aF0.0729280561208725
aF0.05348270386457443
aF0.06810900568962097
aF0.07521498948335648
aF0.07915497571229935
aF0.06473434716463089
aF0.081598199903965
aF0.07557370513677597
aF0.11041644960641861
aF0.08024032413959503
aF0.07647273689508438
aF0.0619199238717556
aF0.06215858459472656
aF0.07430814206600189
aF0.06263773143291473
aF0.08297676593065262
aF0.05902436003088951
aF0.06860645860433578
aF0.06985506415367126
aF0.06561505049467087
aF0.07279053330421448
aF0.0700269341468811
aF0.08049747347831726
aF0.07092281430959702
aF0.06050267070531845
aF0.08305437862873077
aF0.07141105830669403
aF0.07364378124475479
aF0.06800688058137894
aF0.057742778211832047
aF0.08416541665792465
aF0.07506349682807922
aF0.06045476347208023
aF0.08586525917053223
aF0.06268096715211868
aF0.07634898275136948
aF0.06294465810060501
aF0.06280763447284698
aF0.07054553925991058
aF0.06696893274784088
aF0.07165369391441345
aF0.08309679478406906
aF0.07932358235120773
aF0.0707954615354538
aF0.07145757228136063
aF0.06620290130376816
aF0.07052458077669144
aF0.06324467808008194
aF0.06508631259202957
aF0.07728438079357147
aF0.05975674092769623
aF0.054403532296419144
aF0.05846761167049408
aF0.07947740703821182
aF0.0812644362449646
aF0.061667364090681076
aF0.08116506785154343
aF0.0704403892159462
aF0.08206391334533691
aF0.05293624475598335
aF0.08509212732315063
aF0.06279963999986649
aF0.07111860066652298
aF0.05102723836898804
aF0.07308367639780045
aF0.0713559091091156
aF0.06323152780532837
aF0.07250252366065979
aF0.06933071464300156
aF0.06235503777861595
aF0.06394778192043304
aF0.07634343951940536
aF0.063338503241539
aF0.06296397745609283
aF0.05963569134473801
aF0.07693038135766983
aF0.07009763270616531
aF0.07690206915140152
aF0.07485246658325195
aF0.06758156418800354
aF0.06710194051265717
aF0.06905286759138107
aF0.05998511239886284
aF0.0722014382481575
aF0.04741561785340309
aF0.08229251205921173
aF0.07518752664327621
aF0.07717140018939972
aF0.07369548082351685
aF0.05728926882147789
aF0.06862075626850128
aF0.07599812746047974
aF0.054410140961408615
aF0.08500004559755325
aF0.07533451914787292
aF0.0542876236140728
aF0.05812420696020126
aF0.0669468492269516
aF0.059760887175798416
aF0.07530060410499573
aF0.07868579775094986
aF0.07276622205972672
aF0.078911192715168
aF0.07231360673904419
aF0.07246017456054688
aF0.06747899949550629
aF0.06958615779876709
aF0.07297787070274353
aF0.09141568839550018
aF0.06997396796941757
aF0.0703510269522667
aF0.05714019387960434
aF0.05967707186937332
aF0.06518978625535965
aF0.06758158653974533
aF0.04239170625805855
aF0.07387398928403854
aF0.08898134529590607
aF0.07528690993785858
aF0.06237151101231575
aF0.07687687128782272
aF0.07470983266830444
aF0.06613146513700485
aF0.04913073778152466
aF0.059637442231178284
aF0.062479957938194275
aF0.0695628970861435
aF0.05251549556851387
aF0.07880710810422897
aF0.06679385900497437
aF0.06570190191268921
aF0.05509230121970177
aF0.07131257653236389
aF0.07417581975460052
aF0.06096131354570389
aF0.08553104847669601
aF0.06030034273862839
aF0.07236766815185547
aF0.06458763778209686
aF0.06393979489803314
aF0.09132055938243866
aF0.07961009442806244
aF0.06923782825469971
aF0.06199325993657112
aF0.06362106651067734
aF0.07224402576684952
aF0.07399877160787582
aF0.055528540164232254
aF0.05942165106534958
aF0.07690374553203583
aF0.06570542603731155
aF0.07511001825332642
aF0.070530965924263
aF0.06918865442276001
aF0.045008473098278046
aF0.06648852676153183
aF0.09015612304210663
aF0.07492180168628693
aF0.06328127533197403
aF0.06313730776309967
aF0.0639808177947998
aF0.07494863867759705
aF0.06964386999607086
aF0.05385562777519226
aF0.07371403276920319
aF0.07671842724084854
aF0.08241831511259079
aF0.09077782928943634
aF0.08944609761238098
aF0.07315632700920105
aF0.06481891125440598
aF0.06174285709857941
aF0.05375967547297478
aF0.0764983668923378
aF0.07426177710294724
aF0.08428734540939331
aF0.0991218164563179
aF0.06635444611310959
aF0.06643219292163849
aF0.0783446729183197
aF0.09046022593975067
aF0.052660148590803146
aF0.09367109835147858
aF0.05108414590358734
aF0.06940716505050659
aF0.08244764059782028
aF0.07023241370916367
aF0.06728315353393555
aF0.07231903076171875
aF0.06841392070055008
aF0.06424398720264435
aF0.06560912728309631
aF0.06996561586856842
aF0.06662262976169586
aF0.05476899817585945
aF0.08116451650857925
aF0.08248206973075867
aF0.06812436133623123
aF0.07561570405960083
aF0.06801380217075348
aF0.07001607865095139
aF0.07411471009254456
aF0.05303473770618439
aF0.0780521035194397
aF0.06271235644817352
aF0.059988442808389664
aF0.07973971962928772
aF0.05686375871300697
aF0.04942210763692856
aF0.061122383922338486
aF0.05011575669050217
aF0.049764636904001236
aF0.05402601882815361
aF0.07032442837953568
aF0.06549428403377533
aF0.07798352837562561
aF0.0920008197426796
aF0.058512698858976364
aF0.08595509827136993
aF0.08605528622865677
aF0.07086795568466187
aF0.06152534484863281
aF0.05374274030327797
aF0.05602981895208359
aF0.06730297952890396
aF0.07871642708778381
aF0.06961064785718918
aF0.07257266342639923
aF0.07666745781898499
aF0.06718146800994873
aF0.07896091789007187
aF0.07967828214168549
aF0.07685765624046326
aF0.06820724904537201
aF0.08131662011146545
aF0.07151094079017639
aF0.04245530813932419
aF0.0644453838467598
aF0.07531958818435669
aF0.05942077562212944
aF0.051923248916864395
aF0.0564504936337471
aF0.09726773202419281
aF0.0659828931093216
aF0.07845597714185715
aF0.07583379745483398
aF0.049858517944812775
aF0.05344891920685768
aF0.06390485167503357
aF0.09549111127853394
aF0.05893838778138161
aF0.048964038491249084
aF0.07022172212600708
aF0.07509633898735046
aF0.06043329834938049
aF0.07454743981361389
aF0.06266456842422485
aF0.07335086166858673
aF0.05543230101466179
aF0.07527843117713928
aF0.07344522327184677
aF0.05281936377286911
aF0.06683722883462906
aF0.05827665701508522
aF0.059659652411937714
aF0.061906713992357254
aF0.04356812685728073
aF0.07648099958896637
aF0.07213179767131805
aF0.06693625450134277
aF0.09073932468891144
aF0.060418978333473206
aF0.08609777688980103
aF0.08282218128442764
aF0.06736133247613907
aF0.06439360231161118
aF0.07825789600610733
aF0.0677802711725235
aF0.06212397664785385
aF0.07037948817014694
aF0.07675963640213013
aF0.07644209265708923
aF0.06632544845342636
aF0.05750170722603798
aF0.07123049348592758
aF0.05450330674648285
aF0.06117701530456543
aF0.06892349570989609
aF0.07195080816745758
aF0.06009851396083832
aF0.07356506586074829
aF0.07066700607538223
aF0.10393097996711731
aF0.07821398973464966
aF0.0752759575843811
aF0.06111869588494301
aF0.05498267337679863
aF0.07486855983734131
aF0.06538519263267517
aF0.07339740544557571
aF0.05461505427956581
aF0.06673118472099304
aF0.0697510689496994
aF0.062102947384119034
aF0.07529371976852417
aF0.06510910391807556
aF0.07477264851331711
aF0.07187368720769882
aF0.0545969121158123
aF0.07856745272874832
aF0.06913986802101135
aF0.07232358306646347
aF0.07080326229333878
aF0.05782020837068558
aF0.08410660177469254
aF0.06987762451171875
aF0.06193795055150986
aF0.0858883336186409
aF0.06180117279291153
aF0.07273221015930176
aF0.06378072500228882
aF0.06597299128770828
aF0.06796786189079285
aF0.06362857669591904
aF0.06892996281385422
aF0.08059614896774292
aF0.07296528667211533
aF0.06714218854904175
aF0.07111814618110657
aF0.06208624690771103
aF0.07357693463563919
aF0.060212623327970505
aF0.06122025474905968
aF0.07305973768234253
aF0.058455150574445724
aF0.05613589286804199
aF0.06482414156198502
aF0.07369688898324966
aF0.0777069702744484
aF0.061378251761198044
aF0.07737985253334045
aF0.06614262610673904
aF0.08335613459348679
aF0.049090344458818436
aF0.08420543372631073
aF0.06443954259157181
aF0.07058495283126831
aF0.04874679446220398
aF0.07555630803108215
aF0.07044597715139389
aF0.060628388077020645
aF0.0696815475821495
aF0.07147690653800964
aF0.07074105739593506
aF0.06934592127799988
aF0.07505133002996445
aF0.058380383998155594
aF0.057684771716594696
aF0.05753578245639801
aF0.07099533826112747
aF0.06595864146947861
aF0.07956518977880478
aF0.0641351193189621
aF0.07041212916374207
aF0.062083858996629715
aF0.0667954683303833
aF0.05898637697100639
aF0.06740888208150864
aF0.046432267874479294
aF0.08156722784042358
aF0.06832101941108704
aF0.07300294935703278
aF0.07235446572303772
aF0.06126578524708748
aF0.06927607953548431
aF0.07720242440700531
aF0.05110247805714607
aF0.0827941969037056
aF0.07145073264837265
aF0.05283645913004875
aF0.05795453488826752
aF0.06544662266969681
aF0.05790528282523155
aF0.07460933178663254
aF0.07584477961063385
aF0.07225874066352844
aF0.08056134730577469
aF0.07330277562141418
aF0.06902846693992615
aF0.06685852259397507
aF0.07082603126764297
aF0.0774519294500351
aF0.0917334035038948
aF0.0683685913681984
aF0.07430551201105118
aF0.06004447862505913
aF0.05966310203075409
aF0.06242706999182701
aF0.06985769420862198
aF0.040864430367946625
aF0.07375283539295197
aF0.08468332141637802
aF0.07037272304296494
aF0.060491595417261124
aF0.07129166275262833
aF0.0721098855137825
aF0.06722509115934372
aF0.049171458929777145
aF0.057192280888557434
aF0.05981658026576042
aF0.06410107761621475
aF0.05686017870903015
aF0.07636330276727676
aF0.05979607626795769
aF0.05795145034790039
aF0.05408497527241707
aF0.0636993944644928
aF0.07022055238485336
aF0.06000128760933876
aF0.08096837997436523
aF0.06103946268558502
aF0.06408227980136871
aF0.07040636986494064
aF0.06887710094451904
aF0.08596672117710114
aF0.08007557690143585
aF0.06916072964668274
aF0.05430406332015991
aF0.0646798387169838
aF0.07472479343414307
aF0.06985433399677277
aF0.056919246912002563
aF0.05433689057826996
aF0.0785394161939621
aF0.06525150686502457
aF0.07525153458118439
aF0.0717802420258522
aF0.06421031802892685
aF0.045723795890808105
aF0.06232643127441406
aF0.08208726346492767
aF0.07056225836277008
aF0.06069718673825264
aF0.05981725826859474
aF0.06113680452108383
aF0.077827587723732
aF0.07048051059246063
aF0.04964994639158249
aF0.07300744205713272
aF0.06901799142360687
aF0.08326337486505508
aF0.08712907880544662
aF0.08662161231040955
aF0.07651914656162262
aF0.06121757999062538
aF0.05693687126040459
aF0.057021744549274445
aF0.0701354518532753
aF0.06709711253643036
aF0.0716952309012413
aF0.09326117485761642
aF0.06311175972223282
aF0.06465911120176315
aF0.07187268882989883
aF0.08002050220966339
aF0.04911976307630539
aF0.08673205971717834
aF0.05190930888056755
aF0.06601664423942566
aF0.0821722000837326
aF0.06952415406703949
aF0.0705239549279213
aF0.07106020301580429
aF0.07431872934103012
aF0.06419972330331802
aF0.06636831909418106
aF0.06692051887512207
aF0.06398174166679382
aF0.05993956699967384
aF0.07637906074523926
aF0.08433717489242554
aF0.06063566729426384
aF0.07179199904203415
aF0.06806375831365585
aF0.0688837394118309
aF0.07058445364236832
aF0.05979768931865692
aF0.07613691687583923
aF0.06050905957818031
aF0.06563029438257217
aF0.07490650564432144
aF0.060121722519397736
aF0.05423643812537193
aF0.057830873876810074
aF0.04908517003059387
aF0.0497603602707386
aF0.0538853220641613
aF0.07045669853687286
aF0.06220099702477455
aF0.06970223784446716
aF0.08312220871448517
aF0.05866110697388649
aF0.08153147995471954
aF0.08221248537302017
aF0.0745706632733345
aF0.05210820958018303
aF0.04613024741411209
aF0.06124698743224144
aF0.06316191703081131
aF0.07171718031167984
aF0.07279287278652191
aF0.0708831399679184
aF0.07179149985313416
aF0.06297395378351212
aF0.07173217833042145
aF0.07999689877033234
aF0.07864687591791153
aF0.06743943691253662
aF0.07520069181919098
aF0.0733199268579483
aF0.03968128189444542
aF0.06249282881617546
aF0.07381214946508408
aF0.05380749702453613
aF0.05072364583611488
aF0.0544423870742321
aF0.09392887353897095
aF0.06029655039310455
aF0.07989516854286194
aF0.07574167102575302
aF0.053105875849723816
aF0.05019722506403923
aF0.06377459317445755
aF0.08738207817077637
aF0.05262109637260437
aF0.0467866025865078
aF0.06764156371355057
aF0.07049105316400528
aF0.06174533814191818
aF0.08160778880119324
aF0.06212218850851059
aF0.07686567306518555
aF0.05319737643003464
aF0.07066266983747482
aF0.07388249784708023
aF0.051866404712200165
aF0.06614714115858078
aF0.0625748336315155
aF0.05808581784367561
aF0.05918432027101517
aF0.043877653777599335
aF0.07821771502494812
aF0.07038777321577072
aF0.06614282727241516
aF0.08121271431446075
aF0.05755705013871193
aF0.08073385804891586
aF0.07947281748056412
aF0.06694045662879944
aF0.06244943290948868
aF0.08140438795089722
aF0.06727326661348343
aF0.06358765065670013
aF0.07363050431013107
aF0.07796502858400345
aF0.0731959119439125
aF0.06196101754903793
aF0.05754255875945091
aF0.06971777230501175
aF0.05211380869150162
aF0.06635018438100815
aF0.06379718333482742
aF0.06703516840934753
aF0.060410238802433014
aF0.07469305396080017
aF0.07253855466842651
aF0.09493687003850937
aF0.07527575641870499
aF0.0696968287229538
aF0.061416249722242355
aF0.05752892792224884
aF0.07344852387905121
aF0.06166892126202583
aF0.07078028470277786
aF0.05815696343779564
aF0.06212582811713219
aF0.06594636291265488
aF0.05955781042575836
aF0.07652802765369415
aF0.0640285313129425
aF0.07432840019464493
aF0.06958707422018051
aF0.05592826008796692
aF0.07605935633182526
aF0.07148747891187668
aF0.07569614052772522
aF0.06392493844032288
aF0.05386602133512497
aF0.08734636008739471
aF0.06923219561576843
aF0.05801435559988022
aF0.07874149084091187
aF0.06376234441995621
aF0.07339122146368027
aF0.06696788221597672
aF0.06230917572975159
aF0.06894136220216751
aF0.06225953251123428
aF0.060273677110672
aF0.07688150554895401
aF0.07145509868860245
aF0.06342098116874695
aF0.0671372041106224
aF0.05945989489555359
aF0.07062690705060959
aF0.059756141155958176
aF0.060506436973810196
aF0.07411306351423264
aF0.062491524964571
aF0.0564318522810936
aF0.06402609497308731
aF0.07076393812894821
aF0.07603055983781815
aF0.05527699738740921
aF0.0784546434879303
aF0.06684109568595886
aF0.08111461997032166
aF0.048258356750011444
aF0.0907343178987503
aF0.06283913552761078
aF0.07338175922632217
aF0.04952046275138855
aF0.07523128390312195
aF0.07060293853282928
aF0.05627436935901642
aF0.07003366947174072
aF0.06775856018066406
aF0.061968084424734116
aF0.06585842370986938
aF0.07584584504365921
aF0.055151768028736115
aF0.060963794589042664
aF0.06127876415848732
aF0.07490833848714828
aF0.06343511492013931
aF0.07348746061325073
aF0.06486314535140991
aF0.06490471959114075
aF0.061117105185985565
aF0.06475935131311417
aF0.05763150006532669
aF0.0671551451086998
aF0.04648607596755028
aF0.08652953803539276
aF0.07078485190868378
aF0.07528820633888245
aF0.07341540604829788
aF0.057851798832416534
aF0.06782953441143036
aF0.0685802698135376
aF0.0527086965739727
aF0.08566392213106155
aF0.07282091677188873
aF0.0476129874587059
aF0.05673713609576225
aF0.06389602273702621
aF0.05337322875857353
aF0.06951665133237839
aF0.07718536257743835
aF0.06651316583156586
aF0.08321239799261093
aF0.07345005124807358
aF0.06754989176988602
aF0.06841420382261276
aF0.060661155730485916
aF0.07510494440793991
aF0.0899442657828331
aF0.06802868098020554
aF0.07001059502363205
aF0.06095926836133003
aF0.05777614936232567
aF0.062385208904743195
aF0.06507033109664917
aF0.04247830808162689
aF0.06818822026252747
aF0.08620454370975494
aF0.07177082449197769
aF0.05950194597244263
aF0.0724981278181076
aF0.07640615105628967
aF0.07230331748723984
aF0.05149935930967331
aF0.05818074196577072
aF0.058160461485385895
aF0.0689566358923912
aF0.05826259404420853
aF0.08102477341890335
aF0.06062322482466698
aF0.05902314558625221
aF0.0557427778840065
aF0.06248185783624649
aF0.06913076341152191
aF0.05514437332749367
aF0.08798191696405411
aF0.06710708141326904
aF0.06596710532903671
aF0.06022383272647858
aF0.060727521777153015
aF0.08812282979488373
aF0.07892731577157974
aF0.06815769523382187
aF0.05754861235618591
aF0.06323450058698654
aF0.07310791313648224
aF0.06566361337900162
aF0.06001819297671318
aF0.05641169100999832
aF0.0654517412185669
aF0.07019225507974625
aF0.06978807598352432
aF0.0733288899064064
aF0.06961892545223236
aF0.04531537741422653
aF0.06591305881738663
aF0.08002222329378128
aF0.06959681212902069
aF0.058008987456560135
aF0.056243643164634705
aF0.05686755105853081
aF0.07378661632537842
aF0.0636434406042099
aF0.054093193262815475
aF0.07738984376192093
aF0.07224280387163162
aF0.07997528463602066
aF0.08124729245901108
aF0.08397112786769867
aF0.07443516701459885
aF0.06657421588897705
aF0.05459564924240112
aF0.054838187992572784
aF0.07210858166217804
aF0.06729986518621445
aF0.07473322004079819
aF0.08930587768554688
aF0.05967201665043831
aF0.06796223670244217
aF0.07374783605337143
aF0.08236147463321686
aF0.04728681966662407
aF0.09071534872055054
aF0.05094379186630249
aF0.060732051730155945
aF0.07755190879106522
aF0.06883284449577332
aF0.0635743960738182
aF0.07062774896621704
aF0.06860453635454178
aF0.06656941771507263
aF0.06603839993476868
aF0.06931676715612411
aF0.06240559741854668
aF0.05860651284456253
aF0.08271234482526779
aF0.08117775619029999
aF0.06108032539486885
aF0.07841797173023224
aF0.06230522692203522
aF0.07126626372337341
aF0.07364459335803986
aF0.05969120189547539
aF0.07031368464231491
aF0.05886366218328476
aF0.05942695215344429
aF0.07735408842563629
aF0.05948403850197792
aF0.048850078135728836
aF0.06070150434970856
aF0.052657514810562134
aF0.0463724285364151
aF0.05548611655831337
aF0.07533062994480133
aF0.06379326432943344
aF0.07593012601137161
aF0.0845484733581543
aF0.05680793523788452
aF0.07417736202478409
aF0.08285430818796158
aF0.06312835216522217
aF0.058864742517471313
aF0.04658139869570732
aF0.0583459809422493
aF0.06261897832155228
aF0.07259070128202438
aF0.06638644635677338
aF0.0708097591996193
aF0.07162250578403473
aF0.0672345757484436
aF0.06987539678812027
aF0.07635695487260818
aF0.08354368060827255
aF0.07048773765563965
aF0.08290161937475204
aF0.07151895016431808
aF0.039262555539608
aF0.0595274493098259
aF0.07970480620861053
aF0.056630078703165054
aF0.051657237112522125
aF0.05429447069764137
aF0.09094544500112534
aF0.06528469920158386
aF0.07969094812870026
aF0.07435508072376251
aF0.04806697368621826
aF0.05303723365068436
aF0.05701696127653122
aF0.09218038618564606
aF0.05677904561161995
aF0.046961262822151184
aF0.07354307919740677
aF0.06646299362182617
aF0.0627681314945221
aF0.07786542922258377
aF0.06497672945261002
aF0.07749184966087341
aF0.051834721118211746
aF0.0776403546333313
aF0.07441490143537521
aF0.05661271512508392
aF0.06069871783256531
aF0.05503752455115318
aF0.05136040598154068
aF0.05872410908341408
aF0.04267926886677742
aF0.07602308690547943
aF0.07168291509151459
aF0.06604296714067459
aF0.08086974918842316
aF0.06048470735549927
aF0.07963603734970093
aF0.07981511950492859
aF0.06882528215646744
aF0.06484273076057434
aF0.07964757084846497
aF0.0669361799955368
aF0.06274653226137161
aF0.06679090857505798
aF0.07394922524690628
aF0.07048093527555466
aF0.06174151971936226
aF0.052152302116155624
aF0.07026252150535583
aF0.05257313698530197
aF0.06102466210722923
aF0.0645575225353241
aF0.06995533406734467
aF0.05543546751141548
aF0.07308978587388992
aF0.06903290003538132
aF0.09806200861930847
aF0.07491200417280197
aF0.07039817422628403
aF0.06515263020992279
aF0.059359610080718994
aF0.07583437114953995
aF0.06131230294704437
aF0.07236646115779877
aF0.060593996196985245
aF0.06166873872280121
aF0.06469415128231049
aF0.06143435835838318
aF0.07664157450199127
aF0.06048116460442543
aF0.07888852059841156
aF0.07038944959640503
aF0.05323145538568497
aF0.07666186988353729
aF0.07349230349063873
aF0.07080458849668503
aF0.06621351093053818
aF0.05308568850159645
aF0.08780401945114136
aF0.07276094704866409
aF0.06107332184910774
aF0.08056867867708206
aF0.06803320348262787
aF0.07625256478786469
aF0.06791765987873077
aF0.06348817050457001
aF0.06291133910417557
aF0.05958332493901253
aF0.06321845948696136
aF0.07794603705406189
aF0.07074001431465149
aF0.06199735775589943
aF0.07224366068840027
aF0.0593092180788517
aF0.06966210901737213
aF0.06072358042001724
aF0.06358050554990768
aF0.07008642703294754
aF0.05631750449538231
aF0.05346839502453804
aF0.06481380015611649
aF0.07429187744855881
aF0.077775739133358
aF0.052959904074668884
aF0.07732163369655609
aF0.06985192000865936
aF0.07838089764118195
aF0.04935464635491371
aF0.08864512294530869
aF0.057094719260931015
aF0.07075260579586029
aF0.05257965251803398
aF0.07398056983947754
aF0.07320395112037659
aF0.06131622940301895
aF0.07137379050254822
aF0.06779809296131134
aF0.060661762952804565
aF0.06680813431739807
aF0.0781395435333252
aF0.056575022637844086
aF0.057952698320150375
aF0.0638098493218422
aF0.07012996822595596
aF0.06035647541284561
aF0.07300571352243423
aF0.06277629733085632
aF0.0663938969373703
aF0.06016233190894127
aF0.06768807023763657
aF0.058934662491083145
aF0.0660586804151535
aF0.04627125337719917
aF0.07991883903741837
aF0.07315334677696228
aF0.07395307719707489
aF0.06875307112932205
aF0.06285855919122696
aF0.06708565354347229
aF0.07590791583061218
aF0.053529832512140274
aF0.08052368462085724
aF0.07391197234392166
aF0.049629177898168564
aF0.05603817105293274
aF0.06288380175828934
aF0.05345805361866951
aF0.06889084726572037
aF0.08289732038974762
aF0.06557616591453552
aF0.07930612564086914
aF0.07016141712665558
aF0.06670209020376205
aF0.06611946225166321
aF0.0606616847217083
aF0.07301433384418488
aF0.08792105317115784
aF0.06453301757574081
aF0.07016047835350037
aF0.05591293424367905
aF0.05678700655698776
aF0.06529676169157028
aF0.06833919137716293
aF0.04505646973848343
aF0.07309159636497498
aF0.08638015389442444
aF0.06839536875486374
aF0.055822618305683136
aF0.07521601766347885
aF0.07237956672906876
aF0.06621941179037094
aF0.053295399993658066
aF0.054887909442186356
aF0.065594382584095
aF0.06749823689460754
aF0.05614526942372322
aF0.07889370620250702
aF0.06362210959196091
aF0.06091398000717163
aF0.05222215875983238
aF0.0663139596581459
aF0.06932563334703445
aF0.060318659991025925
aF0.08050624281167984
aF0.06157021224498749
aF0.06697690486907959
aF0.05997763201594353
aF0.06274259835481644
aF0.08141295611858368
aF0.07829076051712036
aF0.06496312469244003
aF0.058925826102495193
aF0.05913231149315834
aF0.07121793925762177
aF0.06366495043039322
aF0.05852409452199936
aF0.05836119130253792
aF0.06808355450630188
aF0.07027865946292877
aF0.06901298463344574
aF0.07614036649465561
aF0.06783595681190491
aF0.045109618455171585
aF0.0648704320192337
aF0.08165627717971802
aF0.07174938917160034
aF0.06168694794178009
aF0.05823584273457527
aF0.056184571236371994
aF0.07001698762178421
aF0.06647008657455444
aF0.046403225511312485
aF0.07484986633062363
aF0.07409501820802689
aF0.08242184668779373
aF0.08293543756008148
aF0.08597347885370255
aF0.07634302228689194
aF0.06398282945156097
aF0.05828613042831421
aF0.05370233952999115
aF0.073246069252491
aF0.06693338602781296
aF0.07009611278772354
aF0.08973444998264313
aF0.06138535961508751
aF0.06216150149703026
aF0.07156000286340714
aF0.07903074473142624
aF0.0493757501244545
aF0.09099268168210983
aF0.05205095559358597
aF0.06084150820970535
aF0.07540078461170197
aF0.06911684572696686
aF0.06597034633159637
aF0.06920399516820908
aF0.07129243016242981
aF0.06263383477926254
aF0.06293516606092453
aF0.06559756398200989
aF0.06344759464263916
aF0.05532006174325943
aF0.07753374427556992
aF0.08050091564655304
aF0.057654254138469696
aF0.07455645501613617
aF0.06299753487110138
aF0.07095740735530853
aF0.06779409199953079
aF0.05368484929203987
aF0.07730107009410858
aF0.06139945983886719
aF0.05971376597881317
aF0.07749170064926147
aF0.05749370902776718
aF0.05055009573698044
aF0.058212343603372574
aF0.04567278176546097
aF0.04805801808834076
aF0.05421601980924606
aF0.07108420878648758
aF0.06195104867219925
aF0.07191772758960724
aF0.08126188069581985
aF0.06286056339740753
aF0.07511991262435913
aF0.0805218517780304
aF0.07069464027881622
aF0.05693456158041954
aF0.0443158820271492
aF0.06245854124426842
aF0.05943887680768967
aF0.073959119617939
aF0.06740381568670273
aF0.06871121376752853
aF0.06379319727420807
aF0.062761090695858
aF0.07314881682395935
aF0.07877729833126068
aF0.08338932693004608
aF0.0671849325299263
aF0.07468639314174652
aF0.06617995351552963
aF0.03938654065132141
aF0.061723493039608
aF0.07545123249292374
aF0.05260352045297623
aF0.04697371646761894
aF0.055163249373435974
aF0.08947475254535675
aF0.05898892879486084
aF0.07806339114904404
aF0.07688327878713608
aF0.04811626672744751
aF0.05249360576272011
aF0.06285557895898819
aF0.08919311314821243
aF0.05790441855788231
aF0.04837730526924133
aF0.06776829808950424
aF0.06648418307304382
aF0.05716617405414581
aF0.08073272556066513
aF0.06391777098178864
aF0.0727711096405983
aF0.05034336447715759
aF0.0709591656923294
aF0.07565513253211975
aF0.05647427961230278
aF0.06504039466381073
aF0.0578685998916626
aF0.05046086013317108
aF0.058601681143045425
aF0.04111078754067421
aF0.07649831473827362
aF0.06403334438800812
aF0.06712925434112549
aF0.0845756083726883
aF0.05683055520057678
aF0.07678047567605972
aF0.07789744436740875
aF0.061808548867702484
aF0.061913732439279556
aF0.07447977364063263
aF0.06403212994337082
aF0.06204783543944359
aF0.06864510476589203
aF0.07583940029144287
aF0.07078898698091507
aF0.05898599326610565
aF0.05236660689115524
aF0.06867144256830215
aF0.052644576877355576
aF0.06388512998819351
aF0.0619753859937191
aF0.06619388610124588
aF0.06235705688595772
aF0.0725376084446907
aF0.06809566169977188
aF0.09619143605232239
aF0.07789760828018188
aF0.06797994673252106
aF0.06451594084501266
aF0.05454349145293236
aF0.0715198665857315
aF0.060517456382513046
aF0.07752861827611923
aF0.05683191493153572
aF0.06194288656115532
aF0.07112064212560654
aF0.06109967082738876
aF0.07184340804815292
aF0.061727460473775864
aF0.07634100317955017
aF0.07106184959411621
aF0.05313566327095032
aF0.07867973297834396
aF0.06442070007324219
aF0.06663452088832855
aF0.06625131517648697
aF0.05382510647177696
aF0.08370237052440643
aF0.06913207471370697
aF0.05712505802512169
aF0.07799333333969116
aF0.06320496648550034
aF0.0718042254447937
aF0.06674043089151382
aF0.06044382601976395
aF0.06596710532903671
aF0.06372366845607758
aF0.06182092800736427
aF0.07704097032546997
aF0.07595812529325485
aF0.0672113299369812
aF0.06981998682022095
aF0.059287913143634796
aF0.0704268217086792
aF0.058515820652246475
aF0.060730885714292526
aF0.07638072222471237
aF0.05513988062739372
aF0.05227069556713104
aF0.05900433659553528
aF0.0759650468826294
aF0.07700619846582413
aF0.0545005276799202
aF0.0743626058101654
aF0.06923490017652512
aF0.07582405209541321
aF0.047864969819784164
aF0.08806473761796951
aF0.05893183499574661
aF0.07044785469770432
aF0.05109599232673645
aF0.07209789752960205
aF0.06887917220592499
aF0.06145956739783287
aF0.06835366040468216
aF0.06986326724290848
aF0.06221820414066315
aF0.06366614252328873
aF0.07340769469738007
aF0.055587977170944214
aF0.06085394695401192
aF0.05478232726454735
aF0.07332488894462585
aF0.06342174857854843
aF0.07199539244174957
aF0.06598386913537979
aF0.061594150960445404
aF0.06265443563461304
aF0.06899864971637726
aF0.05881146341562271
aF0.06346826255321503
aF0.04380784183740616
aF0.0810508131980896
aF0.07076388597488403
aF0.07545457780361176
aF0.0707249715924263
aF0.057001110166311264
aF0.06959739327430725
aF0.07233259081840515
aF0.0523403026163578
aF0.08173255622386932
aF0.06700317561626434
aF0.049394652247428894
aF0.05205673724412918
aF0.06349733471870422
aF0.05497768893837929
aF0.0691738873720169
aF0.08221324533224106
aF0.07062480598688126
aF0.07595865428447723
aF0.06993143260478973
aF0.06519722193479538
aF0.06831830739974976
aF0.06447090208530426
aF0.07835602760314941
aF0.08538582921028137
aF0.07193026691675186
aF0.068910151720047
aF0.05617028474807739
aF0.05940388888120651
aF0.06541747599840164
aF0.06088881194591522
aF0.039998166263103485
aF0.06712295114994049
aF0.0805836021900177
aF0.07080027461051941
aF0.058113183826208115
aF0.07520231604576111
aF0.07112347334623337
aF0.06663727760314941
aF0.049100276082754135
aF0.05685459077358246
aF0.0649099200963974
aF0.06526442617177963
aF0.053410544991493225
aF0.08434175699949265
aF0.05967022851109505
aF0.06062514707446098
aF0.051958970725536346
aF0.06364738196134567
aF0.06600305438041687
aF0.061621613800525665
aF0.08759570121765137
aF0.05970209091901779
aF0.06700706481933594
aF0.06420640647411346
aF0.061521563678979874
aF0.07982626557350159
aF0.0704646185040474
aF0.06642899662256241
aF0.058113377541303635
aF0.06120271235704422
aF0.07069527357816696
aF0.06218044459819794
aF0.058089517056941986
aF0.05833997577428818
aF0.06708215922117233
aF0.06684263795614243
aF0.0709632933139801
aF0.07049255818128586
aF0.06768922507762909
aF0.04065092280507088
aF0.0629790723323822
aF0.08255491405725479
aF0.06807844340801239
aF0.06067065894603729
aF0.056856635957956314
aF0.054971784353256226
aF0.07494193315505981
aF0.06994419544935226
aF0.05390634015202522
aF0.0725109726190567
aF0.06873248517513275
aF0.08265414834022522
aF0.08242601901292801
aF0.0849161446094513
aF0.07000025361776352
aF0.06659264862537384
aF0.05767088010907173
aF0.055652085691690445
aF0.06749118864536285
aF0.06794492900371552
aF0.07826413214206696
aF0.08813431859016418
aF0.0562666580080986
aF0.06075160950422287
aF0.0715487003326416
aF0.0774313434958458
aF0.047009557485580444
aF0.08668967336416245
aF0.050509173423051834
aF0.06694906949996948
aF0.07414058595895767
aF0.06957543641328812
aF0.06797247380018234
aF0.07061401754617691
aF0.0653824433684349
aF0.06464242935180664
aF0.0640469416975975
aF0.06658978760242462
aF0.06170893460512161
aF0.05802728235721588
aF0.07620463520288467
aF0.07919444143772125
aF0.06130781024694443
aF0.06989177316427231
aF0.06301867961883545
aF0.06908141076564789
aF0.06447823345661163
aF0.055402301251888275
aF0.06884881854057312
aF0.056663330644369125
aF0.05981215089559555
aF0.07362519204616547
aF0.06013747304677963
aF0.049597375094890594
aF0.061840999871492386
aF0.045558128505945206
aF0.047921180725097656
aF0.05147216469049454
aF0.07069750875234604
aF0.05838984251022339
aF0.06779409199953079
aF0.08825696259737015
aF0.05838458985090256
aF0.07109180837869644
aF0.08041410893201828
aF0.06970745325088501
aF0.05176325887441635
aF0.04614808037877083
aF0.05698814615607262
aF0.06062343344092369
aF0.0738360732793808
aF0.06651824712753296
aF0.07207009196281433
aF0.06853139400482178
aF0.06289223581552505
aF0.07376415282487869
aF0.08342981338500977
aF0.07598789036273956
aF0.06870586425065994
aF0.07490736246109009
aF0.06830509752035141
aF0.038178056478500366
aF0.06403303891420364
aF0.07242835313081741
aF0.054638609290122986
aF0.04955080524086952
aF0.05402756109833717
aF0.09374557435512543
aF0.06105969473719597
aF0.08166801929473877
aF0.06997907906770706
aF0.05063195154070854
aF0.05136101692914963
aF0.0573471300303936
aF0.08522697538137436
aF0.05188136547803879
aF0.04708859696984291
aF0.06403347849845886
aF0.06641045212745667
aF0.05975590646266937
aF0.07921212166547775
aF0.06437672674655914
aF0.07307243347167969
aF0.04829361289739609
aF0.07123272866010666
aF0.0701131820678711
aF0.05894005671143532
aF0.06749696284532547
aF0.05780502036213875
aF0.056652240455150604
aF0.06288989633321762
aF0.04022206738591194
aF0.07640817761421204
aF0.06853561103343964
aF0.06060798838734627
aF0.08015842735767365
aF0.060489218682050705
aF0.08061456680297852
aF0.07873617112636566
aF0.06416287273168564
aF0.06301102042198181
aF0.07689236104488373
aF0.06169550120830536
aF0.06273669749498367
aF0.06929756700992584
aF0.0751597061753273
aF0.07462602853775024
aF0.060709066689014435
aF0.05280120670795441
aF0.06717215478420258
aF0.04969682916998863
aF0.06148446351289749
aF0.06251735985279083
aF0.06489766389131546
aF0.06235218793153763
aF0.07272278517484665
aF0.06879883259534836
aF0.10367120802402496
aF0.07285076379776001
aF0.06913438439369202
aF0.06360717862844467
aF0.05699818208813667
aF0.06938313692808151
aF0.061963919550180435
aF0.07221519947052002
aF0.056687142699956894
aF0.06048984453082085
aF0.06816472858190536
aF0.054950784891843796
aF0.07707992941141129
aF0.06235130876302719
aF0.07640451192855835
aF0.07042140513658524
aF0.05494924634695053
aF0.07277029007673264
aF0.06547706574201584
aF0.06796637177467346
aF0.06279274821281433
aF0.054411254823207855
aF0.08633849024772644
aF0.07111406326293945
aF0.05903931334614754
aF0.08033721148967743
aF0.06375455856323242
aF0.07009975612163544
aF0.06285350024700165
aF0.058185432106256485
aF0.06710320711135864
aF0.06296378374099731
aF0.06105051189661026
aF0.07665102928876877
aF0.07229889184236526
aF0.060967009514570236
aF0.06413096934556961
aF0.059407010674476624
aF0.07410566508769989
aF0.06232432276010513
aF0.05463121831417084
aF0.07105622440576553
aF0.0531926266849041
aF0.05512573570013046
aF0.05962258204817772
aF0.07079055160284042
aF0.07722674310207367
aF0.05404990166425705
aF0.07177124172449112
aF0.06557758152484894
aF0.07649821043014526
aF0.051235660910606384
aF0.08704821765422821
aF0.06156746670603752
aF0.07051579654216766
aF0.0501507967710495
aF0.07028969377279282
aF0.06733427941799164
aF0.0606125108897686
aF0.06672147661447525
aF0.06479246914386749
aF0.059072718024253845
aF0.06552073359489441
aF0.07232153415679932
aF0.0562678724527359
aF0.06172577664256096
aF0.057723090052604675
aF0.07214371860027313
aF0.062191661447286606
aF0.0721220150589943
aF0.06089591607451439
aF0.06615208834409714
aF0.06459999084472656
aF0.06218136474490166
aF0.05491321161389351
aF0.060669995844364166
aF0.044358156621456146
aF0.08046719431877136
aF0.0694713294506073
aF0.07149382680654526
aF0.07230531424283981
aF0.05982069671154022
aF0.06754674017429352
aF0.0763908177614212
aF0.05065164342522621
aF0.08279724419116974
aF0.07244888693094254
aF0.0481715090572834
aF0.05616867169737816
aF0.06178746372461319
aF0.05833654850721359
aF0.0648333802819252
aF0.07769890874624252
aF0.06862463802099228
aF0.0784660279750824
aF0.07088904082775116
aF0.06435026228427887
aF0.06887897849082947
aF0.05486471578478813
aF0.07003509253263474
aF0.08273372054100037
aF0.06845248490571976
aF0.0694260373711586
aF0.060651108622550964
aF0.05748807638883591
aF0.0670163631439209
aF0.06554856151342392
aF0.0415814071893692
aF0.07018472254276276
aF0.08392444998025894
aF0.07208988815546036
aF0.054409753531217575
aF0.0747084692120552
aF0.07518142461776733
aF0.06590849906206131
aF0.04828530550003052
aF0.05649409070611
aF0.061140064150094986
aF0.06565534323453903
aF0.055410586297512054
aF0.0770174115896225
aF0.0587833896279335
aF0.05935456603765488
aF0.05225128307938576
aF0.05737316608428955
aF0.07160726934671402
aF0.05613478273153305
aF0.08161458373069763
aF0.06103502959012985
aF0.06288815289735794
aF0.06160404905676842
aF0.06300608068704605
aF0.07843397557735443
aF0.07634865492582321
aF0.06357968598604202
aF0.05959877371788025
aF0.06268024444580078
aF0.07098217308521271
aF0.06844175606966019
aF0.05701610818505287
aF0.056716762483119965
aF0.06228502094745636
aF0.06958123296499252
aF0.06901215761899948
aF0.07017551362514496
aF0.0677795484662056
aF0.04452475905418396
aF0.06271784752607346
aF0.08095934987068176
aF0.07360748946666718
aF0.060980796813964844
aF0.0587586984038353
aF0.057431913912296295
aF0.07274127006530762
aF0.0661221370100975
aF0.0518774650990963
aF0.07045017182826996
aF0.06903871148824692
aF0.08077871054410934
aF0.08358165621757507
aF0.08777107298374176
aF0.07057900726795197
aF0.06259872764348984
aF0.060286812484264374
aF0.053173866122961044
aF0.0657803937792778
aF0.06994131207466125
aF0.06897938251495361
aF0.09113141894340515
aF0.06057504564523697
aF0.06454445421695709
aF0.07347742468118668
aF0.08084236830472946
aF0.04708732292056084
aF0.08925114572048187
aF0.052172914147377014
aF0.061551209539175034
aF0.07450352609157562
aF0.06748434156179428
aF0.06476637721061707
aF0.07172796130180359
aF0.065503790974617
aF0.06522978842258453
aF0.06107340753078461
aF0.06870622932910919
aF0.06371191889047623
aF0.05545251816511154
aF0.07644274830818176
aF0.07958528399467468
aF0.059168897569179535
aF0.07337907701730728
aF0.0632309764623642
aF0.0711136907339096
aF0.0695299282670021
aF0.056207526475191116
aF0.07142114639282227
aF0.05622835457324982
aF0.05705408751964569
aF0.07399249076843262
aF0.05849607661366463
aF0.04820737987756729
aF0.05708276480436325
aF0.046047091484069824
aF0.045760560780763626
aF0.05699356272816658
aF0.06579512357711792
aF0.06134998798370361
aF0.07245122641324997
aF0.08193495124578476
aF0.0559116005897522
aF0.07583227753639221
aF0.08007936924695969
aF0.06970231235027313
aF0.05050118267536163
aF0.04502268135547638
aF0.059893012046813965
aF0.05785205215215683
aF0.06860071420669556
aF0.06805960834026337
aF0.06923632323741913
aF0.07188158482313156
aF0.06503967940807343
aF0.07256458699703217
aF0.07707585394382477
aF0.07988204807043076
aF0.06637916713953018
aF0.07745706290006638
aF0.06422001123428345
aF0.038768768310546875
aF0.06333771347999573
aF0.07838285714387894
aF0.054864294826984406
aF0.05240859091281891
aF0.05091723054647446
aF0.09292138367891312
aF0.05742197483778
aF0.0768713504076004
aF0.07117848098278046
aF0.050879962742328644
aF0.05392348766326904
aF0.05882812663912773
aF0.09070603549480438
aF0.05398860201239586
aF0.05080166459083557
aF0.06218596547842026
aF0.0669444128870964
aF0.0605795718729496
aF0.08093191683292389
aF0.06317217648029327
aF0.07344483584165573
aF0.051700253039598465
aF0.06993339210748672
aF0.07094912976026535
aF0.05770034343004227
aF0.06783440709114075
aF0.05588797107338905
aF0.05065270513296127
aF0.05830875039100647
aF0.042792294174432755
aF0.07830272614955902
aF0.07114941626787186
aF0.05948793143033981
aF0.0776173397898674
aF0.059226542711257935
aF0.078368179500103
aF0.07458105683326721
aF0.06260406970977783
aF0.06481398642063141
aF0.07377787679433823
aF0.06337401270866394
aF0.06407882273197174
aF0.07150904089212418
aF0.07475146651268005
aF0.0727975070476532
aF0.06423455476760864
aF0.053979258984327316
aF0.0679936334490776
aF0.051044635474681854
aF0.060340311378240585
aF0.06408107280731201
aF0.06773528456687927
aF0.058707062155008316
aF0.07022968679666519
aF0.07012774050235748
aF0.09973415732383728
aF0.07697276771068573
aF0.0706600621342659
aF0.061035796999931335
aF0.054107218980789185
aF0.06887359917163849
aF0.05991456285119057
aF0.07030463218688965
aF0.05910276621580124
aF0.05853962525725365
aF0.06924183666706085
aF0.05443204194307327
aF0.07126899063587189
aF0.05804245546460152
aF0.07364489138126373
aF0.06639625132083893
aF0.05283251032233238
aF0.07529950886964798
aF0.0630882978439331
aF0.07461974024772644
aF0.06114617735147476
aF0.05373997241258621
aF0.08300834149122238
aF0.0679803118109703
aF0.06188926100730896
aF0.07834092527627945
aF0.0642053484916687
aF0.07303682714700699
aF0.0647643506526947
aF0.06065744906663895
aF0.06370479613542557
aF0.05935690179467201
aF0.06253042072057724
aF0.0749325156211853
aF0.07791491597890854
aF0.06233866140246391
aF0.06377493590116501
aF0.05773160606622696
aF0.07199490815401077
aF0.06030561029911041
aF0.05721801519393921
aF0.07025215029716492
aF0.055602237582206726
aF0.05424799397587776
aF0.06095850095152855
aF0.07181444019079208
aF0.08040586858987808
aF0.055906206369400024
aF0.07798565179109573
aF0.06557916104793549
aF0.07450087368488312
aF0.050380807369947433
aF0.07874920964241028
aF0.05910269916057587
aF0.0659550204873085
aF0.04767506197094917
aF0.07023598998785019
aF0.07206062227487564
aF0.05897236615419388
aF0.0689845085144043
aF0.0639854446053505
aF0.06430532038211823
aF0.06392423808574677
aF0.07091400772333145
aF0.05597347021102905
aF0.059885088354349136
aF0.06138768419623375
aF0.07065397500991821
aF0.06218484044075012
aF0.0707283690571785
aF0.06062927842140198
aF0.06051124632358551
aF0.05844976752996445
aF0.059911493211984634
aF0.05736673250794411
aF0.06034000962972641
aF0.04262017086148262
aF0.07897641509771347
aF0.06675601750612259
aF0.07317118346691132
aF0.07112853229045868
aF0.056462451815605164
aF0.06395062804222107
aF0.07096852362155914
aF0.05172305554151535
aF0.08262885361909866
aF0.07254203408956528
aF0.049909405410289764
aF0.05839461833238602
aF0.06533125042915344
aF0.059972211718559265
aF0.06541243940591812
aF0.08360590785741806
aF0.06840415298938751
aF0.07757710665464401
aF0.06684480607509613
aF0.06464816629886627
aF0.06501509994268417
aF0.060143839567899704
aF0.07330308109521866
aF0.08753824234008789
aF0.06518609076738358
aF0.07690895348787308
aF0.05812118947505951
aF0.05663810670375824
aF0.061662014573812485
aF0.059761177748441696
aF0.04091756418347359
aF0.06979485601186752
aF0.0847061350941658
aF0.06693325936794281
aF0.05507025867700577
aF0.07383821904659271
aF0.07322370260953903
aF0.06725137680768967
aF0.049272339791059494
aF0.05811331793665886
aF0.06218818947672844
aF0.06540020555257797
aF0.05280832201242447
aF0.07903413474559784
aF0.06144842505455017
aF0.06380942463874817
aF0.05378556251525879
aF0.06182221323251724
aF0.06977373361587524
aF0.06019807234406471
aF0.08507741242647171
aF0.06115172803401947
aF0.06105267256498337
aF0.06120973080396652
aF0.06129704788327217
aF0.0774356946349144
aF0.07651184499263763
aF0.059280868619680405
aF0.059569645673036575
aF0.059702318161726
aF0.06912091374397278
aF0.06491149216890335
aF0.052482105791568756
aF0.05261629447340965
aF0.05741198733448982
aF0.06440851837396622
aF0.06950398534536362
aF0.06865590810775757
aF0.06073959171772003
aF0.04246758669614792
aF0.06423792243003845
aF0.07903198897838593
aF0.06961918622255325
aF0.05965462699532509
aF0.05433226004242897
aF0.054272446781396866
aF0.07226213067770004
aF0.06744709610939026
aF0.048998381942510605
aF0.0735819935798645
aF0.06459404528141022
aF0.08039448410272598
aF0.07801426947116852
aF0.08348143845796585
aF0.07187464833259583
aF0.06418576836585999
aF0.058894868940114975
aF0.05361641198396683
aF0.06935608386993408
aF0.07013676315546036
aF0.06940875202417374
aF0.09398335218429565
aF0.06067876145243645
aF0.06109010428190231
aF0.07317529618740082
aF0.0778203159570694
aF0.04600704088807106
aF0.09094129502773285
aF0.0491403192281723
aF0.060654252767562866
aF0.07378114759922028
aF0.06750402599573135
aF0.06429851800203323
aF0.06679018586874008
aF0.07063435018062592
aF0.06505433470010757
aF0.06145068258047104
aF0.06534776091575623
aF0.06464804708957672
aF0.05616949498653412
aF0.07875712215900421
aF0.08108039200305939
aF0.06280143558979034
aF0.07457690685987473
aF0.06816671788692474
aF0.0664370059967041
aF0.06989765167236328
aF0.053515221923589706
aF0.07257525622844696
aF0.06039569154381752
aF0.060384657233953476
aF0.07139845192432404
aF0.05640704184770584
aF0.050962697714567184
aF0.05655280873179436
aF0.04281041771173477
aF0.04639284685254097
aF0.056146252900362015
aF0.06943726539611816
aF0.05918276309967041
aF0.07149624824523926
aF0.07992514222860336
aF0.055037107318639755
aF0.07420041412115097
aF0.07757106423377991
aF0.0657692700624466
aF0.050477370619773865
aF0.04715370014309883
aF0.05761035904288292
aF0.05935102328658104
aF0.07027792185544968
aF0.06576541811227798
aF0.06793542206287384
aF0.06484939157962799
aF0.0605633482336998
aF0.07169187813997269
aF0.07629279047250748
aF0.0785994604229927
aF0.06759706139564514
aF0.07186084985733032
aF0.06449395418167114
aF0.037840235978364944
aF0.06105101481080055
aF0.07479418814182281
aF0.05242370069026947
aF0.046174582093954086
aF0.05188355967402458
aF0.09128033369779587
aF0.05718281492590904
aF0.07664719223976135
aF0.07109805196523666
aF0.05044466629624367
aF0.050042152404785156
aF0.061997052282094955
aF0.08417829126119614
aF0.05180482566356659
aF0.04630105197429657
aF0.06466947495937347
aF0.06793839484453201
aF0.05898280814290047
aF0.07458797097206116
aF0.0632038563489914
aF0.07021234184503555
aF0.05205698683857918
aF0.07292132824659348
aF0.07029322534799576
aF0.05229362100362778
aF0.06478999555110931
aF0.05904055014252663
aF0.053077757358551025
aF0.06012078374624252
aF0.04329370707273483
aF0.07455035299062729
aF0.06646750867366791
aF0.06376154720783234
aF0.07631055265665054
aF0.058207809925079346
aF0.07841497659683228
aF0.07479584217071533
aF0.06645044684410095
aF0.061315592378377914
aF0.07505162060260773
aF0.06459551304578781
aF0.0644470751285553
aF0.07179293036460876
aF0.0729757696390152
aF0.07007366418838501
aF0.05797696113586426
aF0.05637963488698006
aF0.07270907610654831
aF0.055850595235824585
aF0.067745640873909
aF0.06165231019258499
aF0.06727076321840286
aF0.05839340761303902
aF0.0668036937713623
aF0.07026072591543198
aF0.10278532654047012
aF0.08119364082813263
aF0.07084377110004425
aF0.0580194890499115
aF0.0520658940076828
aF0.07175806164741516
aF0.06058192998170853
aF0.07510313391685486
aF0.05870341882109642
aF0.06041558459401131
aF0.06721368432044983
aF0.05715974047780037
aF0.0721634179353714
aF0.057628653943538666
aF0.07505176216363907
aF0.06674589216709137
aF0.052098289132118225
aF0.07140553742647171
aF0.06605704128742218
aF0.07360858470201492
aF0.06378233432769775
aF0.05479748919606209
aF0.08531007170677185
aF0.07139567285776138
aF0.06149876490235329
aF0.07589561492204666
aF0.06018400937318802
aF0.06813054531812668
aF0.06451033055782318
aF0.05742301419377327
aF0.06272668391466141
aF0.061307694762945175
aF0.060826729983091354
aF0.0758729800581932
aF0.07237686961889267
aF0.06481362879276276
aF0.06515925377607346
aF0.06315435469150543
aF0.06856125593185425
aF0.05973602086305618
aF0.05823753774166107
aF0.0711374506354332
aF0.05640117824077606
aF0.05492478609085083
aF0.05788399279117584
aF0.06783533841371536
aF0.07429897040128708
aF0.054561417549848557
aF0.0696883276104927
aF0.06432446092367172
aF0.07859746366739273
aF0.04917813837528229
aF0.0824115052819252
aF0.0580676831305027
aF0.06538305431604385
aF0.04901888966560364
aF0.07529814541339874
aF0.07302643358707428
aF0.05508355796337128
aF0.06432297080755234
aF0.06615860015153885
aF0.058344416320323944
aF0.06380099803209305
aF0.07277217507362366
aF0.05212607607245445
aF0.060046467930078506
aF0.059283241629600525
aF0.06878795474767685
aF0.06113367900252342
aF0.07237257808446884
aF0.06113943085074425
aF0.06301998347043991
aF0.05863022804260254
aF0.06566037237644196
aF0.056930117309093475
aF0.0583125501871109
aF0.04313484579324722
aF0.0795932486653328
aF0.06995762139558792
aF0.0726250559091568
aF0.06961807608604431
aF0.05996713042259216
aF0.0631721168756485
aF0.07295382767915726
aF0.04969096556305885
aF0.07705648243427277
aF0.07255865633487701
aF0.052200403064489365
aF0.0561065636575222
aF0.06422163546085358
aF0.05396972969174385
aF0.07173702120780945
aF0.07689708471298218
aF0.06713506579399109
aF0.07762504369020462
aF0.0669374018907547
aF0.06905592232942581
aF0.061794161796569824
aF0.05922325700521469
aF0.07272659242153168
aF0.08325079828500748
aF0.0645551010966301
aF0.06970783323049545
aF0.057245884090662
aF0.05625951290130615
aF0.06557575613260269
aF0.06403051316738129
aF0.040086403489112854
aF0.06648187339305878
aF0.08680572360754013
aF0.0688631609082222
aF0.0550941526889801
aF0.07336543500423431
aF0.07165060192346573
aF0.06324075907468796
aF0.04721773788332939
aF0.057375773787498474
aF0.06078210845589638
aF0.06765216588973999
aF0.052323829382658005
aF0.07787556201219559
aF0.06040705367922783
aF0.06038006395101547
aF0.05032183602452278
aF0.06385239958763123
aF0.06767850369215012
aF0.05888117477297783
aF0.07805975526571274
aF0.05792106315493584
aF0.06681372970342636
aF0.06354368478059769
aF0.05867306515574455
aF0.0779680460691452
aF0.07354726642370224
aF0.0683530643582344
aF0.05898381769657135
aF0.059249456971883774
aF0.06942807883024216
aF0.06663943082094193
aF0.04910435900092125
aF0.05620915815234184
aF0.060660239309072495
aF0.0643448606133461
aF0.06800328940153122
aF0.0638398751616478
aF0.0666094571352005
aF0.03978480398654938
aF0.06301862001419067
aF0.08331038057804108
aF0.06950296461582184
aF0.06378338485956192
aF0.0570446252822876
aF0.05445238947868347
aF0.06912016123533249
aF0.06317827850580215
aF0.05197353661060333
aF0.07176676392555237
aF0.0699940174818039
aF0.08363556861877441
aF0.07601390033960342
aF0.08428505063056946
aF0.0725218653678894
aF0.06443613022565842
aF0.05894193425774574
aF0.05381875857710838
aF0.06578607857227325
aF0.066329225897789
aF0.07131915539503098
aF0.09055564552545547
aF0.05895919352769852
aF0.05998573452234268
aF0.07028444856405258
aF0.07616923004388809
aF0.04595877230167389
aF0.09075597673654556
aF0.05101732164621353
aF0.06283333897590637
aF0.07018522173166275
aF0.06589905917644501
aF0.06567725539207458
aF0.06706758588552475
aF0.06534919142723083
aF0.06339221447706223
aF0.0602995939552784
aF0.06426683813333511
aF0.06533419340848923
aF0.05452515184879303
aF0.07718511670827866
aF0.08013615757226944
aF0.0561259388923645
aF0.07026643306016922
aF0.06868720799684525
aF0.0703314021229744
aF0.06909514218568802
aF0.056481678038835526
aF0.07172157615423203
aF0.061167217791080475
aF0.05599948391318321
aF0.07202163338661194
aF0.05584556981921196
aF0.051119137555360794
aF0.056541673839092255
aF0.045049604028463364
aF0.04321528226137161
aF0.05166077986359596
aF0.066286101937294
aF0.06313354521989822
aF0.07377808541059494
aF0.08014070242643356
aF0.05335225164890289
aF0.07235144078731537
aF0.07865428179502487
aF0.06735913455486298
aF0.05509139597415924
aF0.04298839718103409
aF0.05704442411661148
aF0.05950802564620972
aF0.07308120280504227
aF0.06876461952924728
aF0.06893488019704819
aF0.06636284291744232
aF0.0670345202088356
aF0.07046841830015182
aF0.07755012065172195
aF0.07857285439968109
aF0.0650380328297615
aF0.07621107250452042
aF0.06355387717485428
aF0.03820771351456642
aF0.06057514622807503
aF0.07385034114122391
aF0.05204877257347107
aF0.0459037646651268
aF0.05245925486087799
aF0.08964875340461731
aF0.05800129473209381
aF0.08157481253147125
aF0.06964277476072311
aF0.051949355751276016
aF0.0522126741707325
aF0.05929989367723465
aF0.08575882762670517
aF0.054780926555395126
aF0.048673518002033234
aF0.0657803937792778
aF0.06799638271331787
aF0.06142820790410042
aF0.07364220917224884
aF0.06152849271893501
aF0.06976006925106049
aF0.052746500819921494
aF0.07286372780799866
aF0.07103754580020905
aF0.058920301496982574
aF0.0639382004737854
aF0.05700976401567459
aF0.056327104568481445
aF0.0554681196808815
aF0.04118795320391655
aF0.07575666159391403
aF0.07127249985933304
aF0.06384099274873734
aF0.07958599925041199
aF0.0576900877058506
aF0.07704921811819077
aF0.0742754116654396
aF0.06716129183769226
aF0.05892994627356529
aF0.07215043157339096
aF0.06503806263208389
aF0.05935246869921684
aF0.07252819091081619
aF0.07192908972501755
aF0.07145315408706665
aF0.05912981927394867
aF0.05628928914666176
aF0.0652260109782219
aF0.051089096814394
aF0.06254161149263382
aF0.06112129986286163
aF0.06714247167110443
aF0.05889638513326645
aF0.07007565349340439
aF0.07078088074922562
aF0.09553693979978561
aF0.07484249770641327
aF0.06877249479293823
aF0.06238226592540741
aF0.050391945987939835
aF0.06857431679964066
aF0.056452058255672455
aF0.07363146543502808
aF0.05352560430765152
aF0.0601959154009819
aF0.06375108659267426
aF0.05257385969161987
aF0.07210598886013031
aF0.06099364906549454
aF0.07083593308925629
aF0.06818829476833344
aF0.051628049463033676
aF0.06966518610715866
aF0.06799544394016266
aF0.06816467642784119
aF0.06364735215902328
aF0.05242030322551727
aF0.08359623700380325
aF0.06605096161365509
aF0.05801570788025856
aF0.07131524384021759
aF0.06354518234729767
aF0.07443015277385712
aF0.067882239818573
aF0.05653685703873634
aF0.06401654332876205
aF0.06342499703168869
aF0.05873260274529457
aF0.07529278844594955
aF0.06901568174362183
aF0.062341708689928055
aF0.06052492558956146
aF0.060577377676963806
aF0.06960835307836533
aF0.05299777910113335
aF0.06173112243413925
aF0.07343233376741409
aF0.05321837589144707
aF0.05569896101951599
aF0.06328952312469482
aF0.06642676889896393
aF0.07423251122236252
aF0.05507514998316765
aF0.06962139904499054
aF0.06979922205209732
aF0.07512901723384857
aF0.04738803952932358
aF0.0848570242524147
aF0.05600029230117798
aF0.06495562940835953
aF0.04714593663811684
aF0.07378967851400375
aF0.0683101937174797
aF0.05875926464796066
aF0.06764465570449829
aF0.06288468837738037
aF0.06259839236736298
aF0.06457565724849701
aF0.07250449806451797
aF0.05572737753391266
aF0.05865290015935898
aF0.05913255736231804
aF0.07135266810655594
aF0.060773152858018875
aF0.07210709154605865
aF0.06194981560111046
aF0.06288612633943558
aF0.06117649003863335
aF0.06307442486286163
aF0.054781224578619
aF0.06298860907554626
aF0.045650653541088104
aF0.07974956929683685
aF0.06671282649040222
aF0.06899934262037277
aF0.06927084922790527
aF0.058710578829050064
aF0.06544589251279831
aF0.07219197601079941
aF0.04810205101966858
aF0.08228997886180878
aF0.0694747269153595
aF0.05227556452155113
aF0.05815272778272629
aF0.06109129264950752
aF0.06015536189079285
aF0.06759089231491089
aF0.07435646653175354
aF0.06952092796564102
aF0.07485572248697281
aF0.07517523318529129
aF0.06588319689035416
aF0.06209573894739151
aF0.0563899390399456
aF0.0688767358660698
aF0.08525296300649643
aF0.06328273564577103
aF0.07624133676290512
aF0.05902577191591263
aF0.05723850429058075
aF0.060150425881147385
aF0.06425436586141586
aF0.041981395334005356
aF0.06760216504335403
aF0.07937374711036682
aF0.06826074421405792
aF0.05419221892952919
aF0.07074444741010666
aF0.0708090290427208
aF0.06497138738632202
aF0.04948608577251434
aF0.0559835210442543
aF0.06325019896030426
aF0.06363874673843384
aF0.05589661747217178
aF0.07665740698575974
aF0.059812210500240326
aF0.05596807971596718
aF0.04995517060160637
aF0.06321809440851212
aF0.06823542714118958
aF0.055685121566057205
aF0.0817008763551712
aF0.061954792588949203
aF0.06753939390182495
aF0.05988709628582001
aF0.0596294142305851
aF0.0772331953048706
aF0.0759807899594307
aF0.06497224420309067
aF0.053877025842666626
aF0.05972437188029289
aF0.07265287637710571
aF0.0644945502281189
aF0.052903350442647934
aF0.05360656604170799
aF0.06323878467082977
aF0.06684966385364532
aF0.07341055572032928
aF0.07181038707494736
aF0.06653337180614471
aF0.040254320949316025
aF0.06051621586084366
aF0.07707630097866058
aF0.06534881889820099
aF0.0624534972012043
aF0.055346645414829254
aF0.053350336849689484
aF0.07467229664325714
aF0.06397145986557007
aF0.04729429632425308
aF0.07224924862384796
aF0.06990068405866623
aF0.08026618510484695
aF0.07883347570896149
aF0.0844692811369896
aF0.07250693440437317
aF0.06062821298837662
aF0.05847664549946785
aF0.052911754697561264
aF0.06752609461545944
aF0.06693388521671295
aF0.0709739550948143
aF0.0915580540895462
aF0.05906626954674721
aF0.061049919575452805
aF0.06843297183513641
aF0.07619865238666534
aF0.04540399834513664
aF0.08716794848442078
aF0.04930633306503296
aF0.06539057195186615
aF0.07208454608917236
aF0.06899770349264145
aF0.0644892230629921
aF0.06918983161449432
aF0.07153099775314331
aF0.06172516569495201
aF0.06674668192863464
aF0.06878682971000671
aF0.062296029180288315
aF0.05324967950582504
aF0.07901956886053085
aF0.07684434205293655
aF0.055127400904893875
aF0.06769552826881409
aF0.06336645781993866
aF0.06537381559610367
aF0.06978316605091095
aF0.05079931020736694
aF0.07001575082540512
aF0.056600961834192276
aF0.055779293179512024
aF0.07289502769708633
aF0.054370079189538956
aF0.048584628850221634
aF0.05274564400315285
aF0.04608037322759628
aF0.04094339907169342
aF0.05237128958106041
aF0.065963976085186
aF0.058173779398202896
aF0.06881529837846756
aF0.08144918084144592
aF0.056649018079042435
aF0.07420066744089127
aF0.07191348075866699
aF0.06593716144561768
aF0.052173957228660583
aF0.04310721158981323
aF0.05487702786922455
aF0.06089700013399124
aF0.07430874556303024
aF0.06275410205125809
aF0.06846252083778381
aF0.06817681342363358
aF0.06491892039775848
aF0.075587697327137
aF0.07660987973213196
aF0.07201527804136276
aF0.06925123929977417
aF0.07615961879491806
aF0.06441760808229446
aF0.03924492001533508
aF0.06231068819761276
aF0.07198341935873032
aF0.052632275968790054
aF0.04648847505450249
aF0.05253536254167557
aF0.08931446820497513
aF0.05802112817764282
aF0.07728604972362518
aF0.06956926733255386
aF0.04458970949053764
aF0.0511300154030323
aF0.0581442229449749
aF0.08347724378108978
aF0.05463697388768196
aF0.04876864701509476
aF0.0678005963563919
aF0.06742635369300842
aF0.058431971818208694
aF0.07564020901918411
aF0.06566037982702255
aF0.07033003866672516
aF0.045536674559116364
aF0.07048963755369186
aF0.06952664256095886
aF0.05601218342781067
aF0.062191758304834366
aF0.058060817420482635
aF0.05312922224402428
aF0.0572819747030735
aF0.039584677666425705
aF0.071743905544281
aF0.06602286547422409
aF0.060215387493371964
aF0.07981277257204056
aF0.05799335613846779
aF0.07826311886310577
aF0.07127614319324493
aF0.06228551268577576
aF0.05965205654501915
aF0.07503606379032135
aF0.06330035626888275
aF0.06650256365537643
aF0.06836549937725067
aF0.07186933606863022
aF0.06741464138031006
aF0.060616400092840195
aF0.055778052657842636
aF0.068218894302845
aF0.05093489587306976
aF0.059349216520786285
aF0.06241966784000397
aF0.06430214643478394
aF0.05552757903933525
aF0.07143694907426834
aF0.07455011457204819
aF0.09593279659748077
aF0.07308504730463028
aF0.068204864859581
aF0.06231599301099777
aF0.05351390317082405
aF0.07002872228622437
aF0.0589410737156868
aF0.07573260366916656
aF0.05796802043914795
aF0.06318936496973038
aF0.06208502873778343
aF0.05601099878549576
aF0.07342951744794846
aF0.05889398604631424
aF0.07208127528429031
aF0.061402566730976105
aF0.04804962873458862
aF0.07132075726985931
aF0.06875737011432648
aF0.06833761930465698
aF0.0671330988407135
aF0.050302840769290924
aF0.08443300426006317
aF0.06915014237165451
aF0.0625024288892746
aF0.07438486814498901
aF0.05959027260541916
aF0.06973390281200409
aF0.061767347157001495
aF0.05669070780277252
aF0.06675807386636734
aF0.05987374112010002
aF0.057346295565366745
aF0.07519368082284927
aF0.07108006626367569
aF0.05814465135335922
aF0.06195584312081337
aF0.06373908370733261
aF0.06796601414680481
aF0.05645231902599335
aF0.057878654450178146
aF0.07334071397781372
aF0.05685735493898392
aF0.05504285916686058
aF0.061148546636104584
aF0.06967926025390625
aF0.07484310865402222
aF0.05344028398394585
aF0.07014428824186325
aF0.0640474334359169
aF0.07441404461860657
aF0.04742264002561569
aF0.08121245354413986
aF0.058579981327056885
aF0.061758752912282944
aF0.051335759460926056
aF0.07175198197364807
aF0.07228642702102661
aF0.05853736773133278
aF0.06468824297189713
aF0.06755263358354568
aF0.06178799644112587
aF0.06095927581191063
aF0.07622219622135162
aF0.05397290736436844
aF0.05527033656835556
aF0.05376232787966728
aF0.07017682492733002
aF0.06096843257546425
aF0.070185586810112
aF0.05843774601817131
aF0.06031868979334831
aF0.06073547899723053
aF0.06393160670995712
aF0.053794242441654205
aF0.0604395866394043
aF0.04658462107181549
aF0.07755810022354126
aF0.06429346650838852
aF0.07077457010746002
aF0.07001076638698578
aF0.055238161236047745
aF0.06512826681137085
aF0.07456260919570923
aF0.05328797176480293
aF0.08383429795503616
aF0.07059934735298157
aF0.04708739370107651
aF0.05150570347905159
aF0.06337672472000122
aF0.05275733768939972
aF0.06789406388998032
aF0.0778040662407875
aF0.06612493097782135
aF0.07770542055368423
aF0.06943065673112869
aF0.0635901466012001
aF0.06329059600830078
aF0.057134512811899185
aF0.07274285703897476
aF0.08297658711671829
aF0.06607770919799805
aF0.07440438121557236
aF0.05843067169189453
aF0.057007063180208206
aF0.061247263103723526
aF0.0643039345741272
aF0.04263658821582794
aF0.06832273304462433
aF0.08452878892421722
aF0.06692414730787277
aF0.050993457436561584
aF0.07090860605239868
aF0.06728397309780121
aF0.06589581817388535
aF0.046987418085336685
aF0.05647812783718109
aF0.0582306943833828
aF0.062332987785339355
aF0.05111803859472275
aF0.07976829260587692
aF0.060389455407857895
aF0.056036826223134995
aF0.04969828948378563
aF0.060924459248781204
aF0.06733323633670807
aF0.05295207351446152
aF0.07657274603843689
aF0.05875813588500023
aF0.06265509128570557
aF0.057911112904548645
aF0.06337858736515045
aF0.07960555702447891
aF0.07074224948883057
aF0.06110600009560585
aF0.05877310410141945
aF0.06020451709628105
aF0.06795503944158554
aF0.0648600310087204
aF0.05885954573750496
aF0.04885395988821983
aF0.06011629477143288
aF0.06818410009145737
aF0.06717094033956528
aF0.07118251919746399
aF0.069438137114048
aF0.04139877110719681
aF0.059425100684165955
aF0.07882586121559143
aF0.0694534033536911
aF0.05876553803682327
aF0.05433141067624092
aF0.056006744503974915
aF0.07141846418380737
aF0.06112377718091011
aF0.05033253878355026
aF0.06830666214227676
aF0.06889165937900543
aF0.08016560226678848
aF0.07780022919178009
aF0.0845283642411232
aF0.07168872654438019
aF0.06781380623579025
aF0.059289053082466125
aF0.05254071578383446
aF0.06607431173324585
aF0.06625242531299591
aF0.0705581083893776
aF0.09094590693712234
aF0.05600956827402115
aF0.06008107215166092
aF0.0754946768283844
aF0.07555562257766724
aF0.04369739070534706
aF0.0862669125199318
aF0.05003784969449043
aF0.06326151639223099
aF0.0769536942243576
aF0.0643192008137703
aF0.06651533395051956
aF0.06842184066772461
aF0.06773030012845993
aF0.06226000562310219
aF0.05875815078616142
aF0.06416536867618561
aF0.061282649636268616
aF0.05282490327954292
aF0.07550261914730072
aF0.07524993270635605
aF0.059316523373126984
aF0.06813739240169525
aF0.06725555658340454
aF0.06648130714893341
aF0.06759495288133621
aF0.0511307418346405
aF0.06775926053524017
aF0.05579906702041626
aF0.05507374554872513
aF0.07206191122531891
aF0.05430029332637787
aF0.04838334396481514
aF0.05229823291301727
aF0.042861148715019226
aF0.04301517456769943
aF0.053937867283821106
aF0.06853660196065903
aF0.05953314155340195
aF0.06834400445222855
aF0.08318548649549484
aF0.055548615753650665
aF0.06793926656246185
aF0.07292204350233078
aF0.06623610109090805
aF0.049850378185510635
aF0.04545168951153755
aF0.054495953023433685
aF0.06015473231673241
aF0.07407969981431961
aF0.061406247317790985
aF0.06593862175941467
aF0.06667837500572205
aF0.06121319904923439
aF0.07142820209264755
aF0.07743270695209503
aF0.07967138290405273
aF0.0662798061966896
aF0.07944222539663315
aF0.06510376185178757
aF0.038743048906326294
aF0.06154530867934227
aF0.07722195982933044
aF0.052060630172491074
aF0.04444994777441025
aF0.050845418125391006
aF0.09254316240549088
aF0.0573473684489727
aF0.07139790803194046
aF0.06987012177705765
aF0.0446910485625267
aF0.05647992715239525
aF0.05834735184907913
aF0.08306719362735748
aF0.050922542810440063
aF0.048201918601989746
aF0.061969269067049026
aF0.06940997391939163
aF0.059023186564445496
aF0.07671459019184113
aF0.06141962110996246
aF0.07244548946619034
aF0.04891171678900719
aF0.0691891759634018
aF0.06939630210399628
aF0.05436284467577934
aF0.06089445576071739
aF0.05572957172989845
aF0.05290692672133446
aF0.05802706256508827
aF0.0416879802942276
aF0.07456305623054504
aF0.07140308618545532
aF0.06153978779911995
aF0.08431173861026764
aF0.05545499920845032
aF0.07198575884103775
aF0.0787801593542099
aF0.06452297419309616
aF0.05832735076546669
aF0.07399068772792816
aF0.06277573853731155
aF0.06584051251411438
aF0.06878533214330673
aF0.07367950677871704
aF0.06687095761299133
aF0.060470446944236755
aF0.05182164907455444
aF0.0680796355009079
aF0.047563210129737854
aF0.056750763207674026
aF0.06093685328960419
aF0.06498264521360397
aF0.06075774505734444
aF0.06968669593334198
aF0.06863120943307877
aF0.09977211803197861
aF0.07381325215101242
aF0.073757603764534
aF0.06515812128782272
aF0.053773440420627594
aF0.0717429518699646
aF0.05749639496207237
aF0.07697635143995285
aF0.06305544823408127
aF0.057760193943977356
aF0.06316491216421127
aF0.05442984774708748
aF0.0712856724858284
aF0.057979654520750046
aF0.07423198968172073
aF0.06599263101816177
aF0.04970357567071915
aF0.07055618613958359
aF0.0630813017487526
aF0.06596354395151138
aF0.06551722437143326
aF0.05184715613722801
aF0.0838351845741272
aF0.06993886083364487
aF0.05905035510659218
aF0.07357921451330185
aF0.061392609030008316
aF0.0691797137260437
aF0.05816563218832016
aF0.05886201933026314
aF0.06132027506828308
aF0.057146403938531876
aF0.0598822720348835
aF0.0712941437959671
aF0.06633353978395462
aF0.05891400948166847
aF0.061337605118751526
aF0.05827680230140686
aF0.07149103283882141
aF0.05923854187130928
aF0.060612309724092484
aF0.06689159572124481
aF0.05879320576786995
aF0.056119151413440704
aF0.06442178785800934
aF0.06593408435583115
aF0.07910282909870148
aF0.05680181458592415
aF0.07056476175785065
aF0.05958254635334015
aF0.0731106847524643
aF0.051318999379873276
aF0.08037454634904861
aF0.059840645641088486
aF0.05873740836977959
aF0.04620763659477234
aF0.07261478155851364
aF0.07111112028360367
aF0.054307326674461365
aF0.06932448595762253
aF0.06799553334712982
aF0.06020700931549072
aF0.06216229125857353
aF0.0698012113571167
aF0.055120814591646194
aF0.05496117100119591
aF0.053299158811569214
aF0.0698566734790802
aF0.06317123025655746
aF0.06938613951206207
aF0.06084691360592842
aF0.05872136354446411
aF0.06047742813825607
aF0.06781782954931259
aF0.05803479254245758
aF0.058177217841148376
aF0.043366678059101105
aF0.07917202264070511
aF0.06687092781066895
aF0.06949303299188614
aF0.06820407509803772
aF0.054109714925289154
aF0.06340644508600235
aF0.07652987539768219
aF0.050030145794153214
aF0.07771780341863632
aF0.06491158157587051
aF0.049390003085136414
aF0.053831376135349274
aF0.06259389221668243
aF0.055933285504579544
aF0.0633108913898468
aF0.08085857331752777
aF0.06956423074007034
aF0.08364091068506241
aF0.07023672014474869
aF0.0633983314037323
aF0.06219734251499176
aF0.06162665784358978
aF0.0682019516825676
aF0.0831112489104271
aF0.06257104128599167
aF0.07399263978004456
aF0.05679628625512123
aF0.055140987038612366
aF0.06121474504470825
aF0.06264763325452805
aF0.040573664009571075
aF0.06152587756514549
aF0.08320550620555878
aF0.06362732499837875
aF0.05711669102311134
aF0.07370364665985107
aF0.06924976408481598
aF0.062598817050457
aF0.04759569838643074
aF0.05502700433135033
aF0.05903215333819389
aF0.058792658150196075
aF0.050285015255212784
aF0.07457946240901947
aF0.05945539474487305
aF0.0570547841489315
aF0.0482502244412899
aF0.06332013010978699
aF0.06513361632823944
aF0.05769645422697067
aF0.08223924040794373
aF0.06299106031656265
aF0.06768553704023361
aF0.06058709695935249
aF0.05708649381995201
aF0.07997117936611176
aF0.07161358743906021
aF0.06414313614368439
aF0.057679370045661926
aF0.05639228597283363
aF0.0656377375125885
aF0.06483538448810577
aF0.05447913333773613
aF0.04979725182056427
aF0.06193559989333153
aF0.06609337776899338
aF0.06790722906589508
aF0.07240298390388489
aF0.0680432841181755
aF0.03995582461357117
aF0.06331666558980942
aF0.07607314735651016
aF0.06665145605802536
aF0.0615750253200531
aF0.05941672995686531
aF0.055702436715364456
aF0.06632928550243378
aF0.06397205591201782
aF0.04796629399061203
aF0.06596456468105316
aF0.06590521335601807
aF0.08083484321832657
aF0.07737202197313309
aF0.08119788765907288
aF0.06999450922012329
aF0.06387393176555634
aF0.060066960752010345
aF0.05405331775546074
aF0.0658545196056366
aF0.06877540796995163
aF0.06417512893676758
aF0.08839882165193558
aF0.050942376255989075
aF0.061380576342344284
aF0.07339458167552948
aF0.07662803679704666
aF0.04494123160839081
aF0.08865372091531754
aF0.0490727573633194
aF0.06494621187448502
aF0.06956540793180466
aF0.07026250660419464
aF0.06770902872085571
aF0.06697355210781097
aF0.06654044985771179
aF0.059676747769117355
aF0.05980273708701134
aF0.06539580225944519
aF0.06017404794692993
aF0.05202434957027435
aF0.07541858404874802
aF0.0783526673913002
aF0.056114476174116135
aF0.07103828340768814
aF0.0637853741645813
aF0.063320592045784
aF0.06740526854991913
aF0.0552513413131237
aF0.06578578054904938
aF0.057324882596731186
aF0.0575915202498436
aF0.07190749794244766
aF0.056758008897304535
aF0.04682469367980957
aF0.05317109823226929
aF0.0419749915599823
aF0.04544737935066223
aF0.057241637259721756
aF0.0638238862156868
aF0.06041551008820534
aF0.06803636997938156
aF0.08090275526046753
aF0.05973850563168526
aF0.06919297575950623
aF0.07668402045965195
aF0.06534472107887268
aF0.05345477908849716
aF0.04147707670927048
aF0.056729335337877274
aF0.05952471122145653
aF0.07128110527992249
aF0.06614856421947479
aF0.06682644039392471
aF0.06993403285741806
aF0.060941196978092194
aF0.06927865743637085
aF0.07656307518482208
aF0.0724780485033989
aF0.06933045387268066
aF0.07732333242893219
aF0.06813761591911316
aF0.035654857754707336
aF0.061168670654296875
aF0.07234317809343338
aF0.05420650541782379
aF0.046484000980854034
aF0.050401318818330765
aF0.08776849508285522
aF0.055979933589696884
aF0.0741775780916214
aF0.06990129500627518
aF0.045737460255622864
aF0.05177929624915123
aF0.05815380811691284
aF0.08391623198986053
aF0.05097917467355728
aF0.04713425040245056
aF0.06104997545480728
aF0.06367235630750656
aF0.06399814784526825
aF0.07653002440929413
aF0.06502831727266312
aF0.06958402693271637
aF0.04733499139547348
aF0.07566011697053909
aF0.07173207402229309
aF0.05553844943642616
aF0.06179114803671837
aF0.06127025559544563
aF0.051458343863487244
aF0.05603791028261185
aF0.03953438624739647
aF0.07669618725776672
aF0.06415286660194397
aF0.06126132234930992
aF0.0838458314538002
aF0.05510694906115532
aF0.07084981352090836
aF0.07314229011535645
aF0.061795104295015335
aF0.0591125451028347
aF0.07318953424692154
aF0.06383606791496277
aF0.06809530407190323
aF0.06747239828109741
aF0.07040049135684967
aF0.06799796968698502
aF0.05507558584213257
aF0.05377327650785446
aF0.06504267454147339
aF0.04883584752678871
aF0.060175005346536636
aF0.06431536376476288
aF0.06490463763475418
aF0.055853940546512604
aF0.06694521009922028
aF0.06647448986768723
aF0.0916050523519516
aF0.07444434612989426
aF0.07266181707382202
aF0.0643012747168541
aF0.05526037514209747
aF0.06826576590538025
aF0.05474993214011192
aF0.06973964720964432
aF0.059779614210128784
aF0.06106230244040489
aF0.06623725593090057
aF0.05392763391137123
aF0.06986649334430695
aF0.056130122393369675
aF0.06958253681659698
aF0.0675947293639183
aF0.05132513865828514
aF0.06964419037103653
aF0.06843142956495285
aF0.06863997131586075
aF0.06418940424919128
aF0.053011875599622726
aF0.08144254237413406
aF0.06920627504587173
aF0.06094599515199661
aF0.07346996665000916
aF0.05828855559229851
aF0.07027330994606018
aF0.06231298670172691
aF0.05758272483944893
aF0.06783468276262283
aF0.05361189320683479
aF0.056966617703437805
aF0.0726129561662674
aF0.06930921971797943
aF0.06143077462911606
aF0.06582484394311905
aF0.05797906965017319
aF0.07299976795911789
aF0.06051778420805931
aF0.06165897101163864
aF0.0678115263581276
aF0.05407280474901199
aF0.05395635962486267
aF0.058022670447826385
aF0.07045606523752213
aF0.07650335133075714
aF0.05068191513419151
aF0.07133740931749344
aF0.06241206079721451
aF0.0712968185544014
aF0.053023066371679306
aF0.08178535103797913
aF0.057590827345848083
aF0.062119435518980026
aF0.045917510986328125
aF0.0711776614189148
aF0.06646355986595154
aF0.058996766805648804
aF0.0672461986541748
aF0.06561935693025589
aF0.057360921055078506
aF0.060528017580509186
aF0.07187052816152573
aF0.054841265082359314
aF0.05714331939816475
aF0.057756207883358
aF0.06728056073188782
aF0.0616518035531044
aF0.07017231732606888
aF0.059665497392416
aF0.06092046573758125
aF0.057706743478775024
aF0.06764759123325348
aF0.05494045838713646
aF0.06060481816530228
aF0.04214395582675934
aF0.07868441194295883
aF0.06772288680076599
aF0.0680200606584549
aF0.06373759359121323
aF0.05672258511185646
aF0.06504197418689728
aF0.07596150040626526
aF0.048910196870565414
aF0.08046646416187286
aF0.06836126744747162
aF0.04576408118009567
aF0.052379388362169266
aF0.05947638675570488
aF0.05481056496500969
aF0.06363404542207718
aF0.07934856414794922
aF0.06999965757131577
aF0.07317709922790527
aF0.07046258449554443
aF0.06317461282014847
aF0.06846759468317032
aF0.06164541095495224
aF0.06910844147205353
aF0.07847194373607635
aF0.06718571484088898
aF0.0713842511177063
aF0.05443553254008293
aF0.05260032042860985
aF0.06263058632612228
aF0.0617561899125576
aF0.038117825984954834
aF0.06914021074771881
aF0.08640564233064651
aF0.06704559922218323
aF0.05006575956940651
aF0.07221494615077972
aF0.06979364901781082
aF0.060956574976444244
aF0.04396432265639305
aF0.05815981701016426
aF0.059399284422397614
aF0.06293442100286484
aF0.05332494154572487
aF0.07875530421733856
aF0.05760238319635391
aF0.05826977640390396
aF0.052522554993629456
aF0.059159550815820694
aF0.0645812526345253
aF0.053547512739896774
aF0.07766136527061462
aF0.0568353570997715
aF0.06299709528684616
aF0.06003354489803314
aF0.058559123426675797
aF0.07513783127069473
aF0.07524551451206207
aF0.06588161736726761
aF0.05621360242366791
aF0.054596301168203354
aF0.06732682138681412
aF0.06273262202739716
aF0.0536411851644516
aF0.05343829467892647
aF0.05804458260536194
aF0.06103631854057312
aF0.0677650198340416
aF0.060986436903476715
aF0.06421086192131042
aF0.04223370552062988
aF0.053351983428001404
aF0.08333796262741089
aF0.06454920023679733
aF0.06021708622574806
aF0.057549990713596344
aF0.05661991983652115
aF0.07312153279781342
aF0.06113967299461365
aF0.048518579453229904
aF0.06633340567350388
aF0.06851770728826523
aF0.07689954340457916
aF0.07795633375644684
aF0.08437704294919968
aF0.07482417672872543
aF0.0600595660507679
aF0.061676256358623505
aF0.056116241961717606
aF0.0612257681787014
aF0.0663963332772255
aF0.06784157454967499
aF0.09025568515062332
aF0.05257948860526085
aF0.0628424808382988
aF0.0663391724228859
aF0.07635311782360077
aF0.04198917746543884
aF0.08595354855060577
aF0.05224810168147087
aF0.06562163680791855
aF0.07009883970022202
aF0.0618409663438797
aF0.06399954110383987
aF0.0652054101228714
aF0.06610259413719177
aF0.06262259930372238
aF0.0593421533703804
aF0.06386799365282059
aF0.0696624219417572
aF0.052544645965099335
aF0.07401937246322632
aF0.08147989958524704
aF0.05449369549751282
aF0.06695786118507385
aF0.0667758584022522
aF0.06650706380605698
aF0.0702238455414772
aF0.052262820303440094
aF0.07134120911359787
aF0.05340062081813812
aF0.05612291768193245
aF0.07095856219530106
aF0.05512591078877449
aF0.047628164291381836
aF0.04909341037273407
aF0.04420112818479538
aF0.04494979977607727
aF0.05130656063556671
aF0.06478484719991684
aF0.06335361301898956
aF0.06914269179105759
aF0.07817566394805908
aF0.053667765110731125
aF0.0697881206870079
aF0.07636193186044693
aF0.06281138956546783
aF0.05490818992257118
aF0.043355606496334076
aF0.053414128720760345
aF0.0582740381360054
aF0.07093481719493866
aF0.06348061561584473
aF0.06990709900856018
aF0.0667494386434555
aF0.060730013996362686
aF0.06873470544815063
aF0.07263725996017456
aF0.07436398416757584
aF0.06428903341293335
aF0.07844758778810501
aF0.05844365060329437
aF0.03805125877261162
aF0.06367869675159454
aF0.07270154356956482
aF0.05345739424228668
aF0.047431591898202896
aF0.05225445702672005
aF0.08456473797559738
aF0.05572972446680069
aF0.07048774510622025
aF0.07094200700521469
aF0.04826146736741066
aF0.047540150582790375
aF0.05648687109351158
aF0.08155633509159088
aF0.050819918513298035
aF0.04579471796751022
aF0.062478017061948776
aF0.06399046629667282
aF0.0577264241874218
aF0.0756368413567543
aF0.06466271728277206
aF0.0688462033867836
aF0.04669298604130745
aF0.07422899454832077
aF0.06573265045881271
aF0.0573900006711483
aF0.06318924576044083
aF0.06067666783928871
aF0.051424406468868256
aF0.05770847573876381
aF0.043255046010017395
aF0.07552287727594376
aF0.06596487760543823
aF0.060416266322135925
aF0.07995472848415375
aF0.056560665369033813
aF0.07758482545614243
aF0.0725819393992424
aF0.06234242022037506
aF0.06302584707736969
aF0.07251434773206711
aF0.058735743165016174
aF0.0622677281498909
aF0.06836765259504318
aF0.07051123678684235
aF0.06772027164697647
aF0.05590279772877693
aF0.050821997225284576
aF0.0682799369096756
aF0.05413876101374626
aF0.05666358768939972
aF0.06555598974227905
aF0.07061735540628433
aF0.05319727957248688
aF0.07342161983251572
aF0.0714360848069191
aF0.10017646849155426
aF0.07280024141073227
aF0.06899993121623993
aF0.0588507205247879
aF0.049049947410821915
aF0.06922221183776855
aF0.056936219334602356
aF0.07099446654319763
aF0.06355980783700943
aF0.06029938906431198
aF0.06430099904537201
aF0.05126149207353592
aF0.06853845715522766
aF0.05747558921575546
aF0.0737956166267395
aF0.065250463783741
aF0.04962196573615074
aF0.06845554709434509
aF0.06779777258634567
aF0.06946827471256256
aF0.06813150644302368
aF0.05137048289179802
aF0.08824270963668823
aF0.0660075917840004
aF0.061114683747291565
aF0.07171498984098434
aF0.06188344210386276
aF0.06689806282520294
aF0.06024550274014473
aF0.056629203259944916
aF0.06390092521905899
aF0.05865542218089104
aF0.056215181946754456
aF0.06932003796100616
aF0.06741980463266373
aF0.0606701485812664
aF0.06070452183485031
aF0.05891796573996544
aF0.0743861272931099
aF0.05652279034256935
aF0.058741141110658646
aF0.06705870479345322
aF0.053771261125802994
aF0.055096402764320374
aF0.05744928494095802
aF0.07112791389226913
aF0.07004974782466888
aF0.05060017481446266
aF0.07082400470972061
aF0.06410200893878937
aF0.07324138283729553
aF0.04847392439842224
aF0.07980947941541672
aF0.0565519705414772
aF0.06269734352827072
aF0.04706348106265068
aF0.07752305269241333
aF0.06920697540044785
aF0.059301652014255524
aF0.06523846834897995
aF0.06934159249067307
aF0.0594666488468647
aF0.06115210801362991
aF0.06688383966684341
aF0.053969141095876694
aF0.05516675487160683
aF0.055642034858465195
aF0.06518657505512238
aF0.05852319300174713
aF0.06575308740139008
aF0.05538490042090416
aF0.059438031166791916
aF0.06077248975634575
aF0.06068702042102814
aF0.04937086999416351
aF0.05599530413746834
aF0.04347711428999901
aF0.07368843257427216
aF0.06725846976041794
aF0.0690864771604538
aF0.06296636909246445
aF0.055872030556201935
aF0.06812910735607147
aF0.07393553853034973
aF0.04494556039571762
aF0.07946327328681946
aF0.0705665871500969
aF0.05042625591158867
aF0.04982203617691994
aF0.06315069645643234
aF0.056056417524814606
aF0.06265082210302353
aF0.083566814661026
aF0.06704646348953247
aF0.07182140648365021
aF0.06721805036067963
aF0.06287799030542374
aF0.06424988806247711
aF0.06004968658089638
aF0.06950303167104721
aF0.08452803641557693
aF0.06255823373794556
aF0.0724656730890274
aF0.05188104882836342
aF0.0604049451649189
aF0.06057027354836464
aF0.06003505736589432
aF0.040430374443531036
aF0.05841422080993652
aF0.07920254021883011
aF0.06237221136689186
aF0.04970204085111618
aF0.07045038789510727
aF0.06762896478176117
aF0.06352097541093826
aF0.04718473553657532
aF0.06029672548174858
aF0.05825437605381012
aF0.06355886161327362
aF0.05034712329506874
aF0.07226330786943436
aF0.05815414711833
aF0.05592028424143791
aF0.0471782460808754
aF0.06368786096572876
aF0.06777645647525787
aF0.055371012538671494
aF0.07456780970096588
aF0.05646984651684761
aF0.06704511493444443
aF0.0565788708627224
aF0.05768956243991852
aF0.07988624274730682
aF0.07557862251996994
aF0.06535805761814117
aF0.05959562212228775
aF0.05820702761411667
aF0.06828835606575012
aF0.06055073440074921
aF0.052973587065935135
aF0.05223275348544121
aF0.05676244571805
aF0.06795542687177658
aF0.06464903056621552
aF0.06582863628864288
aF0.06393619626760483
aF0.0409834049642086
aF0.06173829734325409
aF0.08252432942390442
aF0.06628552079200745
aF0.06333444267511368
aF0.053986210376024246
aF0.0593484602868557
aF0.07285206019878387
aF0.05932440608739853
aF0.04724418371915817
aF0.06531856209039688
aF0.0680108442902565
aF0.07422487437725067
aF0.07810573279857635
aF0.08635682612657547
aF0.07254423946142197
aF0.0622687004506588
aF0.05626577511429787
aF0.04921237751841545
aF0.07426757365465164
aF0.06797287613153458
aF0.06736667454242706
aF0.08879661560058594
aF0.05129487067461014
aF0.06236793473362923
aF0.07057654857635498
aF0.07609543204307556
aF0.043803755193948746
aF0.08276395499706268
aF0.04882410168647766
aF0.060085806995630264
aF0.06938453763723373
aF0.06805381923913956
aF0.0665367916226387
aF0.06285986304283142
aF0.06400343030691147
aF0.06188172847032547
aF0.05899406224489212
aF0.0639573484659195
aF0.06445419043302536
aF0.054341692477464676
aF0.07295425236225128
aF0.08409303426742554
aF0.05618247762322426
aF0.06456584483385086
aF0.06364820897579193
aF0.0667625367641449
aF0.06311748921871185
aF0.05586903169751167
aF0.06686156988143921
aF0.05500173568725586
aF0.05344388261437416
aF0.07754717022180557
aF0.05490843579173088
aF0.04944009706377983
aF0.0499076172709465
aF0.043501466512680054
aF0.042184535413980484
aF0.05296909809112549
aF0.06596975028514862
aF0.06228640303015709
aF0.07031729072332382
aF0.08035203814506531
aF0.05121606960892677
aF0.06954555213451385
aF0.0687379539012909
aF0.06567080318927765
aF0.05051440745592117
aF0.04629009962081909
aF0.05479138717055321
aF0.057221878319978714
aF0.07258151471614838
aF0.0649738684296608
aF0.06686292588710785
aF0.06305041909217834
aF0.05954894423484802
aF0.06366302818059921
aF0.07395243644714355
aF0.07395827770233154
aF0.06433159112930298
aF0.08123492449522018
aF0.06551732122898102
aF0.038685332983732224
aF0.062480807304382324
aF0.07027911394834518
aF0.04910866171121597
aF0.04422220215201378
aF0.05055220425128937
aF0.08654318749904633
aF0.05232027545571327
aF0.07185401767492294
aF0.06893764436244965
aF0.04515577852725983
aF0.047946345061063766
aF0.05856699123978615
aF0.08316522091627121
aF0.05559411272406578
aF0.04745813086628914
aF0.05962425470352173
aF0.06541621685028076
aF0.058766160160303116
aF0.07556943595409393
aF0.06625102460384369
aF0.07086490094661713
aF0.048055198043584824
aF0.06772041320800781
aF0.06753743439912796
aF0.05640266463160515
aF0.06693584471940994
aF0.05959394946694374
aF0.05057559534907341
aF0.05119450390338898
aF0.037995629012584686
aF0.07303164899349213
aF0.06570558995008469
aF0.058698419481515884
aF0.07805809378623962
aF0.060867760330438614
aF0.07677080482244492
aF0.06950324773788452
aF0.06011878699064255
aF0.05731581896543503
aF0.06901248544454575
aF0.06466735154390335
aF0.0625644251704216
aF0.06836982816457748
aF0.06999406218528748
aF0.06506221741437912
aF0.05757314711809158
aF0.055793702602386475
aF0.06385578215122223
aF0.04849931597709656
aF0.05941646546125412
aF0.05992795154452324
aF0.06530190259218216
aF0.05387122184038162
aF0.07068797200918198
aF0.06719175726175308
aF0.09710439294576645
aF0.07454550266265869
aF0.07017937302589417
aF0.06278965622186661
aF0.05438952520489693
aF0.07205780595541
aF0.05596056580543518
aF0.07073352485895157
aF0.06343797594308853
aF0.05821916088461876
aF0.06254475563764572
aF0.0525723360478878
aF0.06331928074359894
aF0.054497141391038895
aF0.07064913958311081
aF0.06800056993961334
aF0.05046877637505531
aF0.06535572558641434
aF0.06808788329362869
aF0.06548986583948135
aF0.06515419483184814
aF0.05231580510735512
aF0.0869278684258461
aF0.06768086552619934
aF0.05448252707719803
aF0.07085629552602768
aF0.060892608016729355
aF0.06558357179164886
aF0.058573536574840546
aF0.05631881579756737
aF0.06379591673612595
aF0.05722040683031082
aF0.05440998077392578
aF0.07373714447021484
aF0.0688999593257904
aF0.06149975210428238
aF0.06108232960104942
aF0.05707380920648575
aF0.06849776953458786
aF0.05248956009745598
aF0.05600983276963234
aF0.07011817395687103
aF0.05047772824764252
aF0.053390320390462875
aF0.05628800392150879
aF0.07127013057470322
aF0.07689596712589264
aF0.05324994772672653
aF0.07242391258478165
aF0.05904247239232063
aF0.07413803040981293
aF0.04704519733786583
aF0.07642192393541336
aF0.05456303805112839
aF0.06274352967739105
aF0.04592693969607353
aF0.07257979363203049
aF0.06534034758806229
aF0.05450231581926346
aF0.06660208106040955
aF0.06676789373159409
aF0.05717170611023903
aF0.060045283287763596
aF0.06712941825389862
aF0.05281240493059158
aF0.057164426892995834
aF0.054918840527534485
aF0.06716781109571457
aF0.05965345352888107
aF0.06698119640350342
aF0.05596897378563881
aF0.05899415165185928
aF0.05976436659693718
aF0.06555639207363129
aF0.05349156633019447
aF0.05797749012708664
aF0.04347383975982666
aF0.08041123300790787
aF0.06618867814540863
aF0.06797938793897629
aF0.06601328402757645
aF0.0584607794880867
aF0.06156023219227791
aF0.07139597088098526
aF0.04863075166940689
aF0.07859021425247192
aF0.06672026962041855
aF0.047911688685417175
aF0.05305462330579758
aF0.06178351491689682
aF0.056978851556777954
aF0.06572934240102768
aF0.07716194540262222
aF0.07345794141292572
aF0.06986576318740845
aF0.07306412607431412
aF0.061165791004896164
aF0.06737060099840164
aF0.05646718293428421
aF0.0682443231344223
aF0.08072318136692047
aF0.0638485699892044
aF0.07110294699668884
aF0.05500921979546547
aF0.06366705149412155
aF0.05963195860385895
aF0.06105227395892143
aF0.03676668182015419
aF0.06365009397268295
aF0.08392612636089325
aF0.06437359005212784
aF0.05419052392244339
aF0.06759730726480484
aF0.06746790558099747
aF0.06289408355951309
aF0.04297453537583351
aF0.060824137181043625
aF0.06056782975792885
aF0.06815119832754135
aF0.05172604322433472
aF0.0783827006816864
aF0.05768750235438347
aF0.06041139364242554
aF0.05158901959657669
aF0.060922302305698395
aF0.06873582303524017
aF0.053121063858270645
aF0.08048682659864426
aF0.0565631203353405
aF0.0618339404463768
aF0.060241468250751495
aF0.0583459734916687
aF0.07205574214458466
aF0.07225176692008972
aF0.06585385650396347
aF0.05590561777353287
aF0.05440467596054077
aF0.0646100640296936
aF0.06636358797550201
aF0.051005586981773376
aF0.051863618195056915
aF0.0630541741847992
aF0.0635666698217392
aF0.06718792021274567
aF0.06672326475381851
aF0.06768834590911865
aF0.03911784663796425
aF0.05823718011379242
aF0.08165396004915237
aF0.06369021534919739
aF0.056432612240314484
aF0.05471038445830345
aF0.05808208882808685
aF0.06969837099313736
aF0.06228068098425865
aF0.0433049313724041
aF0.06616091728210449
aF0.07257920503616333
aF0.07877127081155777
aF0.07537751644849777
aF0.0864875316619873
aF0.07018495351076126
aF0.06513898074626923
aF0.060075271874666214
aF0.05705370754003525
aF0.06712890416383743
aF0.06827530264854431
aF0.07460229843854904
aF0.0898972898721695
aF0.054647378623485565
aF0.06328994035720825
aF0.0653105154633522
aF0.07913889735937119
aF0.04302925243973732
aF0.0867946594953537
aF0.05314081534743309
aF0.06071529537439346
aF0.06957727670669556
aF0.06768068671226501
aF0.061050303280353546
aF0.06499487161636353
aF0.06467243283987045
aF0.065247543156147
aF0.06178685277700424
aF0.06415941566228867
aF0.05994275212287903
aF0.05149128660559654
aF0.07264377921819687
aF0.08270213752985
aF0.05193707346916199
aF0.06749238073825836
aF0.06393326073884964
aF0.06586527079343796
aF0.06628045439720154
aF0.05434221401810646
aF0.06737593561410904
aF0.0539427287876606
aF0.05258983001112938
aF0.07072673738002777
aF0.056014012545347214
aF0.042518846690654755
aF0.052097611129283905
aF0.03983728587627411
aF0.04381113499403
aF0.05173204466700554
aF0.06448764353990555
aF0.0601222924888134
aF0.06657817959785461
aF0.07595094293355942
aF0.053716447204351425
aF0.06028107926249504
aF0.07718617469072342
aF0.06735067069530487
aF0.04939345270395279
aF0.04342251271009445
aF0.04996253550052643
aF0.056353092193603516
aF0.07322908192873001
aF0.061209239065647125
aF0.06463062018156052
aF0.06428447365760803
aF0.0646982416510582
aF0.06507543474435806
aF0.07023690640926361
aF0.0717044472694397
aF0.06654074043035507
aF0.07615188509225845
aF0.06030283123254776
aF0.03466043993830681
aF0.06184540316462517
aF0.07426010072231293
aF0.052520502358675
aF0.04158560931682587
aF0.04938125237822533
aF0.08948033303022385
aF0.050248924642801285
aF0.07238071411848068
aF0.06700866669416428
aF0.04595409706234932
aF0.05245383828878403
aF0.056541766971349716
aF0.08011221885681152
aF0.04962318018078804
aF0.04815683513879776
aF0.06464117765426636
aF0.06267692893743515
aF0.053093791007995605
aF0.07158277183771133
aF0.06292175501585007
aF0.06506083905696869
aF0.05195189267396927
aF0.06700358539819717
aF0.06867329031229019
aF0.05217078700661659
aF0.05833955109119415
aF0.059716831892728806
aF0.052729345858097076
aF0.051995836198329926
aF0.0389876626431942
aF0.07177440822124481
aF0.0705619677901268
aF0.06154059246182442
aF0.08284605294466019
aF0.05406711995601654
aF0.07679413259029388
aF0.06950364261865616
aF0.06377896666526794
aF0.0559709295630455
aF0.07186783850193024
aF0.06023619323968887
aF0.06365149468183517
aF0.06565869599580765
aF0.07537964731454849
aF0.0653846338391304
aF0.057006947696208954
aF0.051300011575222015
aF0.06477672606706619
aF0.04988117516040802
aF0.05960545316338539
aF0.061874665319919586
aF0.0629621148109436
aF0.05631929636001587
aF0.07229525595903397
aF0.06639070063829422
aF0.0940190777182579
aF0.0747440755367279
aF0.07003627717494965
aF0.05822717025876045
aF0.054974474012851715
aF0.06593680381774902
aF0.057153768837451935
aF0.07165708392858505
aF0.058305613696575165
aF0.05469999462366104
aF0.06561802327632904
aF0.04997860640287399
aF0.06098024919629097
aF0.056311801075935364
aF0.07137024402618408
aF0.0631847232580185
aF0.048236947506666183
aF0.06818843632936478
aF0.06669997423887253
aF0.06647195667028427
aF0.06365735828876495
aF0.05243903398513794
aF0.08386057615280151
aF0.06649961322546005
aF0.0599244050681591
aF0.0715973749756813
aF0.057791147381067276
aF0.06808757781982422
aF0.05935785919427872
aF0.05865497887134552
aF0.06503263860940933
aF0.053866930305957794
aF0.057464443147182465
aF0.07188484817743301
aF0.06839995831251144
aF0.0555933453142643
aF0.0648648664355278
aF0.06070763245224953
aF0.06909480690956116
aF0.058995071798563004
aF0.05603240802884102
aF0.06470230966806412
aF0.051235590130090714
aF0.055828340351581573
aF0.060450706630945206
aF0.06986590474843979
aF0.07074824720621109
aF0.054999809712171555
aF0.072440005838871
aF0.061536308377981186
aF0.07493682205677032
aF0.04895520582795143
aF0.08031972497701645
aF0.05377646163105965
aF0.056456178426742554
aF0.047850243747234344
aF0.07097328454256058
aF0.06781262159347534
aF0.05200362205505371
aF0.06301884353160858
aF0.06540089845657349
aF0.05435101315379143
aF0.05866611748933792
aF0.06815872341394424
aF0.053860947489738464
aF0.05891026556491852
aF0.05715658888220787
aF0.06728801131248474
aF0.05746210739016533
aF0.06767480075359344
aF0.058018431067466736
aF0.061715591698884964
aF0.05640775337815285
aF0.062180016189813614
aF0.05076302960515022
aF0.05567086860537529
aF0.0449744388461113
aF0.07918675243854523
aF0.0690624862909317
aF0.06917095929384232
aF0.06752791255712509
aF0.051138654351234436
aF0.063942089676857
aF0.0698326975107193
aF0.04859349876642227
aF0.08330155164003372
aF0.06963981688022614
aF0.04688946157693863
aF0.05281466990709305
aF0.0604221448302269
aF0.051315803080797195
aF0.06046580895781517
aF0.07798167318105698
aF0.0654258206486702
aF0.07441849261522293
aF0.07195065170526505
aF0.06058505177497864
aF0.05964905768632889
aF0.05833078920841217
aF0.07119964808225632
aF0.08118230104446411
aF0.0661381334066391
aF0.0709364265203476
aF0.05571730434894562
aF0.05198473483324051
aF0.06177576258778572
aF0.060595568269491196
aF0.03842846676707268
aF0.06360362470149994
aF0.08716394007205963
aF0.06694296002388
aF0.05431016907095909
aF0.06727121770381927
aF0.06897474825382233
aF0.06230488792061806
aF0.046523310244083405
aF0.058053161948919296
aF0.05658773332834244
aF0.06645750999450684
aF0.04938983917236328
aF0.07865305989980698
aF0.05930003523826599
aF0.05634952336549759
aF0.04942251369357109
aF0.06258566677570343
aF0.0676577016711235
aF0.054197054356336594
aF0.07563120871782303
aF0.05579746514558792
aF0.0648011863231659
aF0.06207474693655968
aF0.05424843356013298
aF0.07633288204669952
aF0.07001341879367828
aF0.06303085386753082
aF0.05812499299645424
aF0.05737162381410599
aF0.06889187544584274
aF0.060638826340436935
aF0.052366990596055984
aF0.04694171994924545
aF0.059112098067998886
aF0.0649426132440567
aF0.06666884571313858
aF0.07127684354782104
aF0.061710041016340256
aF0.04253600165247917
aF0.06110939010977745
aF0.07889048010110855
aF0.06456694006919861
aF0.061896830797195435
aF0.058921121060848236
aF0.055459924042224884
aF0.07029620558023453
aF0.059153784066438675
aF0.046244651079177856
aF0.06850824505090714
aF0.0684082880616188
aF0.07781143486499786
aF0.07614807039499283
aF0.08973123878240585
aF0.06648912280797958
aF0.06548085808753967
aF0.05367119610309601
aF0.05311578884720802
aF0.06808460503816605
aF0.07133868336677551
aF0.07075556367635727
aF0.09434603154659271
aF0.04919201880693436
aF0.058059196919202805
aF0.06556407362222672
aF0.07536377012729645
aF0.045029398053884506
aF0.08585469424724579
aF0.0508091077208519
aF0.06324975937604904
aF0.06237449124455452
aF0.06421153992414474
aF0.06750534474849701
aF0.06404431164264679
aF0.06371869146823883
aF0.0631701722741127
aF0.06382390856742859
aF0.061000049114227295
aF0.05982208251953125
aF0.05419078841805458
aF0.07414864003658295
aF0.07896137982606888
aF0.05804350972175598
aF0.06318186968564987
aF0.0647227019071579
aF0.06814759969711304
aF0.065254807472229
aF0.049781497567892075
aF0.06768333166837692
aF0.05409185588359833
aF0.053776390850543976
aF0.06588871777057648
aF0.053918201476335526
aF0.04807862266898155
aF0.04714718461036682
aF0.04072991758584976
aF0.04278969764709473
aF0.05570003017783165
aF0.06671443581581116
aF0.0634501650929451
aF0.0701974630355835
aF0.07738332450389862
aF0.053951285779476166
aF0.07063715904951096
aF0.07037724554538727
aF0.06307385116815567
aF0.05279088020324707
aF0.041220806539058685
aF0.050368502736091614
aF0.05621962249279022
aF0.07434193044900894
aF0.05970537289977074
aF0.0646873265504837
aF0.06222867965698242
aF0.060942642390728
aF0.07283924520015717
aF0.070614293217659
aF0.07270689308643341
aF0.06430450826883316
aF0.07873492687940598
aF0.06320375949144363
aF0.03707757964730263
aF0.06305539608001709
aF0.06817955523729324
aF0.05314713716506958
aF0.03974475339055061
aF0.04980798438191414
aF0.08601094037294388
aF0.05680608004331589
aF0.06856582313776016
aF0.07156490534543991
aF0.04463228955864906
aF0.04747460037469864
aF0.056386787444353104
aF0.07824717462062836
aF0.05400002747774124
aF0.04907183349132538
aF0.05898289382457733
aF0.0645245835185051
aF0.05558452010154724
aF0.07800157368183136
aF0.06022811308503151
aF0.07043380290269852
aF0.04782383143901825
aF0.07433272153139114
aF0.07209941744804382
aF0.0550798624753952
aF0.05843835324048996
aF0.05779852718114853
aF0.048612985759973526
aF0.05609504133462906
aF0.04054921120405197
aF0.07354078441858292
aF0.06747408211231232
aF0.057652417570352554
aF0.07487078756093979
aF0.054497912526130676
aF0.07676737010478973
aF0.0720294639468193
aF0.060658399015665054
aF0.05748574435710907
aF0.06745869666337967
aF0.06189379096031189
aF0.06065969169139862
aF0.06972194463014603
aF0.07239487767219543
aF0.06909485906362534
aF0.0579259879887104
aF0.052746791392564774
aF0.06641487777233124
aF0.05169971287250519
aF0.05999735742807388
aF0.0626571923494339
aF0.06625109165906906
aF0.057780105620622635
aF0.0683470293879509
aF0.06806786358356476
aF0.09722086787223816
aF0.07525211572647095
aF0.06689228117465973
aF0.05688105896115303
aF0.05411814525723457
aF0.06553851813077927
aF0.05342293530702591
aF0.07117859274148941
aF0.05870934575796127
aF0.056159645318984985
aF0.062331538647413254
aF0.04905254766345024
aF0.06829772889614105
aF0.05872553959488869
aF0.07377781718969345
aF0.06473304331302643
aF0.04872036352753639
aF0.06968360394239426
aF0.06686682254076004
aF0.06388868391513824
aF0.06287483125925064
aF0.04684750363230705
aF0.08070048689842224
aF0.06889360398054123
aF0.0575774647295475
aF0.0714486613869667
aF0.05687003582715988
aF0.06559501588344574
aF0.0632072389125824
aF0.05525453761219978
aF0.06637802720069885
aF0.047401025891304016
aF0.06011379882693291
aF0.07127118110656738
aF0.07229688763618469
aF0.05994188413023949
aF0.06185537949204445
aF0.05844726786017418
aF0.06718268245458603
aF0.05490836873650551
aF0.06040177494287491
aF0.0633702427148819
aF0.047485582530498505
aF0.05241134390234947
aF0.05639820173382759
aF0.06230407580733299
aF0.07761707901954651
aF0.04832883179187775
aF0.06913140416145325
aF0.06134162098169327
aF0.07181596755981445
aF0.04744463041424751
aF0.07887481153011322
aF0.05554905906319618
aF0.06216058507561684
aF0.04725594073534012
aF0.06828483194112778
aF0.06869345158338547
aF0.055531978607177734
aF0.06333599984645844
aF0.06597759574651718
aF0.059274058789014816
aF0.06221238151192665
aF0.07226815074682236
aF0.053235337138175964
aF0.05922216176986694
aF0.0572594590485096
aF0.07076875865459442
aF0.05489972233772278
aF0.06866132467985153
aF0.05536819249391556
aF0.06071365624666214
aF0.0581035353243351
aF0.06861217319965363
aF0.054865315556526184
aF0.05341487005352974
aF0.04545395448803902
aF0.07806800305843353
aF0.06356805562973022
aF0.06444016844034195
aF0.06658612191677094
aF0.053000397980213165
aF0.06372927874326706
aF0.07047069072723389
aF0.049554381519556046
aF0.08168411254882812
aF0.06790105998516083
aF0.050164252519607544
aF0.05089571699500084
aF0.0590837262570858
aF0.05351443588733673
aF0.06114334240555763
aF0.07309026271104813
aF0.06930992752313614
aF0.07125642150640488
aF0.06644628196954727
aF0.06334702670574188
aF0.0622832216322422
aF0.05737631767988205
aF0.06473358720541
aF0.07825559377670288
aF0.06489618122577667
aF0.0736532211303711
aF0.056258223950862885
aF0.05777920410037041
aF0.06233201175928116
aF0.06056467071175575
aF0.03798943758010864
aF0.06244003027677536
aF0.08691789954900742
aF0.062476061284542084
aF0.05394386500120163
aF0.07104043662548065
aF0.0689670741558075
aF0.06072426959872246
aF0.04346543550491333
aF0.0560746043920517
aF0.05762467533349991
aF0.06298855692148209
aF0.048884544521570206
aF0.07829771935939789
aF0.05941976234316826
aF0.05413602292537689
aF0.04697474464774132
aF0.05808524787425995
aF0.06179168447852135
aF0.05441536381840706
aF0.07578767091035843
aF0.053808894008398056
aF0.07156339287757874
aF0.06069296970963478
aF0.056570421904325485
aF0.07293511927127838
aF0.07159716635942459
aF0.06284818053245544
aF0.052868396043777466
aF0.05282752960920334
aF0.07030169665813446
aF0.05976978316903114
aF0.055480871349573135
aF0.053911201655864716
aF0.0590335913002491
aF0.0667397603392601
aF0.06731482595205307
aF0.06824211031198502
aF0.06536256521940231
aF0.04159193113446236
aF0.06083883345127106
aF0.08047305792570114
aF0.0654468834400177
aF0.0674360990524292
aF0.057649966329336166
aF0.05695550516247749
aF0.06940784305334091
aF0.05905875191092491
aF0.04679020866751671
aF0.06802284717559814
aF0.06190422177314758
aF0.0769413411617279
aF0.0753185972571373
aF0.08245585113763809
aF0.06561559438705444
aF0.06385693699121475
aF0.06039763614535332
aF0.05045594647526741
aF0.06658182293176651
aF0.07075784355401993
aF0.07019069045782089
aF0.08697071671485901
aF0.05125997215509415
aF0.0617496557533741
aF0.06456471234560013
aF0.07100068032741547
aF0.04242944344878197
aF0.08482822775840759
aF0.05147281289100647
aF0.060736414045095444
aF0.06998156011104584
aF0.06679509580135345
aF0.06144869327545166
aF0.06649893522262573
aF0.06499343365430832
aF0.05812150985002518
aF0.06188258156180382
aF0.06135181710124016
aF0.05904311314225197
aF0.051276639103889465
aF0.0734131708741188
aF0.07942459732294083
aF0.05463342368602753
aF0.06789546459913254
aF0.06700924783945084
aF0.06967854499816895
aF0.06896388530731201
aF0.049610912799835205
aF0.06643575429916382
aF0.054944198578596115
aF0.049882013350725174
aF0.07004300504922867
aF0.05505421757698059
aF0.04759865999221802
aF0.048253998160362244
aF0.041141342371702194
aF0.040284644812345505
aF0.05364277586340904
aF0.06558067351579666
aF0.06209275871515274
aF0.06616958230733871
aF0.07634103298187256
aF0.05667518079280853
aF0.06703539192676544
aF0.07242180407047272
aF0.06427124887704849
aF0.05127992480993271
aF0.04416297376155853
aF0.052727628499269485
aF0.059536583721637726
aF0.07477731257677078
aF0.061626821756362915
aF0.06290630251169205
aF0.06629429757595062
aF0.0590568408370018
aF0.07085847109556198
aF0.07151441276073456
aF0.06920970976352692
aF0.06839212775230408
aF0.07683362066745758
aF0.06207573786377907
aF0.034991953521966934
aF0.05914624407887459
aF0.0722297728061676
aF0.04927733540534973
aF0.04265811666846275
aF0.04565888270735741
aF0.08391158282756805
aF0.05167423561215401
aF0.07250316441059113
aF0.0715605691075325
aF0.04666781798005104
aF0.05053649842739105
aF0.05411819368600845
aF0.08510833978652954
aF0.048800431191921234
aF0.04687115177512169
aF0.061193279922008514
aF0.05833491310477257
aF0.05803021043539047
aF0.07546164840459824
aF0.06071535870432854
aF0.06740852445363998
aF0.04828668758273125
aF0.07089796662330627
aF0.067011758685112
aF0.05294281616806984
aF0.06235906854271889
aF0.0612744465470314
aF0.05413878336548805
aF0.05433055758476257
aF0.03676348179578781
aF0.07159066200256348
aF0.0660959854722023
aF0.0600966177880764
aF0.08092376589775085
aF0.05739058926701546
aF0.07644858211278915
aF0.06938677281141281
aF0.05976858362555504
aF0.05937634035944939
aF0.07042165100574493
aF0.0639881119132042
aF0.06027507036924362
aF0.0666126012802124
aF0.06975062936544418
aF0.06559491902589798
aF0.056557659059762955
aF0.050750482827425
aF0.06506447494029999
aF0.0481523796916008
aF0.0625515878200531
aF0.06212206184864044
aF0.06375379860401154
aF0.05385677516460419
aF0.0699562057852745
aF0.06825946271419525
aF0.09499821066856384
aF0.07510954886674881
aF0.07494543492794037
aF0.05727136507630348
aF0.05300299450755119
aF0.06408434361219406
aF0.05574863404035568
aF0.07239143550395966
aF0.05671107396483421
aF0.05928307771682739
aF0.06380847096443176
aF0.04898110777139664
aF0.06921844184398651
aF0.05590824410319328
aF0.07383428514003754
aF0.06430485844612122
aF0.048861585557460785
aF0.06904315948486328
aF0.06186910346150398
aF0.0630168467760086
aF0.06689932197332382
aF0.05005979910492897
aF0.08740376681089401
aF0.068071648478508
aF0.05760866031050682
aF0.07012386620044708
aF0.056995898485183716
aF0.0680096372961998
aF0.05832989513874054
aF0.05448123812675476
aF0.06130871921777725
aF0.05286822468042374
aF0.05663991719484329
aF0.07075968384742737
aF0.0670509934425354
aF0.06254695355892181
aF0.06327390670776367
aF0.051625464111566544
aF0.06918664276599884
aF0.058568455278873444
aF0.05549255758523941
aF0.06375589221715927
aF0.051176223903894424
aF0.05207175016403198
aF0.05983060225844383
aF0.06688812375068665
aF0.07218755036592484
aF0.05073641985654831
aF0.06972756236791611
aF0.059973083436489105
aF0.06942304968833923
aF0.04906107857823372
aF0.07716494798660278
aF0.05490966513752937
aF0.06305840611457825
aF0.0475911870598793
aF0.0710621327161789
aF0.0669429823756218
aF0.059682127088308334
aF0.06161131709814072
aF0.06928496807813644
aF0.05737508088350296
aF0.061798084527254105
aF0.0677558034658432
aF0.05416204035282135
aF0.056374482810497284
aF0.05808701738715172
aF0.06633622944355011
aF0.059877242892980576
aF0.07404614984989166
aF0.05758867412805557
aF0.059775568544864655
aF0.057840216904878616
aF0.06241527572274208
aF0.052671488374471664
aF0.05800995975732803
aF0.042590104043483734
aF0.07722432166337967
aF0.06693706661462784
aF0.06837349385023117
aF0.06555145978927612
aF0.05279598757624626
aF0.06529035419225693
aF0.06612703949213028
aF0.04742332920432091
aF0.08170054107904434
aF0.06624866276979446
aF0.048757947981357574
aF0.056501369923353195
aF0.06131599843502045
aF0.05658489465713501
aF0.055754031985998154
aF0.07845206558704376
aF0.07067832350730896
aF0.07278897613286972
aF0.0699685588479042
aF0.06227120757102966
aF0.06214636191725731
aF0.05691469833254814
aF0.06912370771169662
aF0.07713086158037186
aF0.06435152143239975
aF0.07151778787374496
aF0.05215352401137352
aF0.056069862097501755
aF0.06224674731492996
aF0.061647526919841766
aF0.04064635932445526
aF0.06584526598453522
aF0.08500396460294724
aF0.060629162937402725
aF0.052674926817417145
aF0.07073967158794403
aF0.07017906755208969
aF0.0639142170548439
aF0.04537266120314598
aF0.05578561872243881
aF0.0635540634393692
aF0.0617225244641304
aF0.04769055172801018
aF0.07586311548948288
aF0.06031237915158272
aF0.0584665909409523
aF0.05068419873714447
aF0.06350497156381607
aF0.064788319170475
aF0.053936321288347244
aF0.07582417875528336
aF0.05647319555282593
aF0.06632595509290695
aF0.06127229332923889
aF0.05768482759594917
aF0.07383271306753159
aF0.07244523614645004
aF0.06385375559329987
aF0.05292590335011482
aF0.05709300935268402
aF0.06531709432601929
aF0.06330644339323044
aF0.050154052674770355
aF0.049131497740745544
aF0.05777035281062126
aF0.06791949272155762
aF0.06642121821641922
aF0.06655704230070114
aF0.06094881519675255
aF0.04140106216073036
aF0.06120448559522629
aF0.07924982905387878
aF0.06550763547420502
aF0.057955361902713776
aF0.05587594211101532
aF0.05922939255833626
aF0.07043325901031494
aF0.060658231377601624
aF0.041874997317790985
aF0.06771612167358398
aF0.06640025228261948
aF0.07611044496297836
aF0.07289142161607742
aF0.08396518975496292
aF0.0707274079322815
aF0.059826936572790146
aF0.05559315159916878
aF0.053703293204307556
aF0.06840255111455917
aF0.06809382885694504
aF0.0739811435341835
aF0.087287537753582
aF0.051607802510261536
aF0.06126970052719116
aF0.07050522416830063
aF0.07279615104198456
aF0.040220968425273895
aF0.0832553580403328
aF0.05088881403207779
aF0.05772633105516434
aF0.06641098856925964
aF0.06438986957073212
aF0.06332000344991684
aF0.06970375031232834
aF0.06627438217401505
aF0.05966312810778618
aF0.05940384045243263
aF0.06352750211954117
aF0.0621747188270092
aF0.04968978092074394
aF0.07214853167533875
aF0.07812660932540894
aF0.058061569929122925
aF0.0644158199429512
aF0.0661841630935669
aF0.06797995418310165
aF0.06682667136192322
aF0.05590793117880821
aF0.07044082880020142
aF0.05657028779387474
aF0.04857979714870453
aF0.07074500620365143
aF0.05071248114109039
aF0.04467202350497246
aF0.05201778933405876
aF0.04240374639630318
aF0.04298454150557518
aF0.049829062074422836
aF0.06569860875606537
aF0.05905574932694435
aF0.06442847847938538
aF0.07684067636728287
aF0.05021466314792633
aF0.06983760744333267
aF0.06822218745946884
aF0.06055732071399689
aF0.05162528157234192
aF0.04150500148534775
aF0.05463497340679169
aF0.060525599867105484
aF0.07077639549970627
aF0.058936282992362976
aF0.06354035437107086
aF0.0665229931473732
aF0.06222573295235634
aF0.06681158393621445
aF0.06830798834562302
aF0.07094767689704895
aF0.06567392498254776
aF0.07634582370519638
aF0.06226220726966858
aF0.03661895543336868
aF0.06495337933301926
aF0.07405811548233032
aF0.050519466400146484
aF0.04063848406076431
aF0.04750179871916771
aF0.08422037214040756
aF0.05204733833670616
aF0.07108067721128464
aF0.06616055965423584
aF0.04573235288262367
aF0.05127918720245361
aF0.05648375675082207
aF0.07792362570762634
aF0.05151139199733734
aF0.04788195714354515
aF0.06172247231006622
aF0.0636262372136116
aF0.06118444353342056
aF0.07496774196624756
aF0.062347304075956345
aF0.06530527770519257
aF0.04852341115474701
aF0.06859154999256134
aF0.07162915170192719
aF0.05302348732948303
aF0.06153280660510063
aF0.0593319870531559
aF0.04986150190234184
aF0.05546428635716438
aF0.03658917546272278
aF0.0756334662437439
aF0.0697464719414711
aF0.06291177868843079
aF0.07613213360309601
aF0.051768217235803604
aF0.07526010274887085
aF0.07109243422746658
aF0.05906987562775612
aF0.05860585719347
aF0.07171917706727982
aF0.06201539933681488
aF0.06141920015215874
aF0.07238180935382843
aF0.07142484188079834
aF0.06384667754173279
aF0.05544491857290268
aF0.05306146666407585
aF0.0661272332072258
aF0.04520457237958908
aF0.05905461311340332
aF0.05724271014332771
aF0.06413808465003967
aF0.05215519666671753
aF0.06933003664016724
aF0.06424524635076523
aF0.09258303791284561
aF0.07421999424695969
aF0.07074009627103806
aF0.062323346734046936
aF0.054604142904281616
aF0.06396777927875519
aF0.058215972036123276
aF0.07345637679100037
aF0.06392721831798553
aF0.055271878838539124
aF0.06254783272743225
aF0.0461660698056221
aF0.06538616120815277
aF0.05965874344110489
aF0.07269404828548431
aF0.06259720027446747
aF0.047531042248010635
aF0.06928420066833496
aF0.06057882681488991
aF0.06300856173038483
aF0.06315699219703674
aF0.052209220826625824
aF0.08353853225708008
aF0.07003988325595856
aF0.05669600889086723
aF0.06850104033946991
aF0.0541500449180603
aF0.0679612085223198
aF0.05706333369016647
aF0.056541360914707184
aF0.06316440552473068
aF0.05267428606748581
aF0.057687677443027496
aF0.06613175570964813
aF0.06476502120494843
aF0.057094868272542953
aF0.06084845960140228
aF0.056443069130182266
aF0.06947571784257889
aF0.055724818259477615
aF0.05563589185476303
aF0.06580500304698944
aF0.051476240158081055
aF0.05389731004834175
aF0.060164231806993484
aF0.06677702814340591
aF0.07780574262142181
aF0.050541751086711884
aF0.06919196993112564
aF0.06547018885612488
aF0.06834716349840164
aF0.047813281416893005
aF0.08111405372619629
aF0.05526883527636528
aF0.06152822822332382
aF0.04619201645255089
aF0.07193349301815033
aF0.06459610909223557
aF0.05319961532950401
aF0.06874031573534012
aF0.06597188115119934
aF0.057289376854896545
aF0.0580204576253891
aF0.06669535487890244
aF0.05385914444923401
aF0.058510348200798035
aF0.054669324308633804
aF0.07245948165655136
aF0.058813679963350296
aF0.07126917690038681
aF0.05610597878694534
aF0.06390846520662308
aF0.05724748224020004
aF0.06296553462743759
aF0.05413854867219925
aF0.052375487983226776
aF0.04007982835173607
aF0.07618313282728195
aF0.06699616461992264
aF0.06828995794057846
aF0.06863618642091751
aF0.05429200455546379
aF0.06410950422286987
aF0.06710200756788254
aF0.04568414390087128
aF0.07933825999498367
aF0.06882132589817047
aF0.045676447451114655
aF0.04857044294476509
aF0.058669254183769226
aF0.057259559631347656
aF0.06318200379610062
aF0.08030841499567032
aF0.06535489112138748
aF0.07154039293527603
aF0.06799913197755814
aF0.06698588281869888
aF0.06275451928377151
aF0.05841831862926483
aF0.06406085938215256
aF0.07892528176307678
aF0.062489595264196396
aF0.06968989223241806
aF0.05237145721912384
aF0.05201805755496025
aF0.06062903627753258
aF0.06034116446971893
aF0.03891098499298096
aF0.06366769969463348
aF0.0855744481086731
aF0.06308554857969284
aF0.051636986434459686
aF0.06768134981393814
aF0.0657941997051239
aF0.05914198234677315
aF0.04651986435055733
aF0.05918367952108383
aF0.05859208479523659
aF0.05990948900580406
aF0.0510435551404953
aF0.07641912251710892
aF0.05793600529432297
aF0.05273011326789856
aF0.04765812307596207
aF0.06217234209179878
aF0.06796415895223618
aF0.05676834657788277
aF0.07290017604827881
aF0.05926278978586197
aF0.06541553139686584
aF0.05641339346766472
aF0.055265966802835464
aF0.07391313463449478
aF0.07581980526447296
aF0.06233925744891167
aF0.05258090794086456
aF0.05664727836847305
aF0.06292928755283356
aF0.058529097586870193
aF0.05214734748005867
aF0.05204237252473831
aF0.056166503578424454
aF0.0657615065574646
aF0.06649692356586456
aF0.07130855321884155
aF0.05631114915013313
aF0.03958196938037872
aF0.06026510149240494
aF0.07645410299301147
aF0.0628729835152626
aF0.061025213450193405
aF0.057138290256261826
aF0.0528508797287941
aF0.06965585052967072
aF0.05925034359097481
aF0.04782471805810928
aF0.06800153106451035
aF0.06183815747499466
aF0.07725890725851059
aF0.07516516745090485
aF0.08273086696863174
aF0.06739814579486847
aF0.05853946879506111
aF0.051812902092933655
aF0.05677449703216553
aF0.06312866508960724
aF0.0673147663474083
aF0.07564863562583923
aF0.08712614327669144
aF0.05246029794216156
aF0.058084797114133835
aF0.077512226998806
aF0.0756356492638588
aF0.04187401011586189
aF0.0814807191491127
aF0.04835479333996773
aF0.0630413070321083
aF0.0696227177977562
aF0.06386082619428635
aF0.062027279287576675
aF0.0677783265709877
aF0.06647639721632004
aF0.06299708038568497
aF0.06117229536175728
aF0.06259966641664505
aF0.06484793871641159
aF0.050924260169267654
aF0.07380697131156921
aF0.0822276920080185
aF0.056201379746198654
aF0.06350221484899521
aF0.0632752776145935
aF0.0683266818523407
aF0.06615152955055237
aF0.051695454865694046
aF0.06769714504480362
aF0.05211207643151283
aF0.04865323007106781
aF0.06652028113603592
aF0.05207002907991409
aF0.04842634126543999
aF0.04990895837545395
aF0.04285668954253197
aF0.03884871304035187
aF0.05197928100824356
aF0.06346980482339859
aF0.06260239332914352
aF0.0625317245721817
aF0.07723229378461838
aF0.05454171821475029
aF0.07109727710485458
aF0.06959406286478043
aF0.06410279870033264
aF0.04975609481334686
aF0.0432891845703125
aF0.053907204419374466
aF0.056841567158699036
aF0.07134336233139038
aF0.060346901416778564
aF0.06675482541322708
aF0.06566315144300461
aF0.061373643577098846
aF0.07121272385120392
aF0.07230310142040253
aF0.07219085097312927
aF0.06420553475618362
aF0.07413598150014877
aF0.062343526631593704
aF0.03483172878623009
aF0.06258945912122726
aF0.07763093709945679
aF0.05407748743891716
aF0.04162988066673279
aF0.046738214790821075
aF0.08398929983377457
aF0.05616063252091408
aF0.06857358664274216
aF0.06793713569641113
aF0.043202124536037445
aF0.052996017038822174
aF0.05980673432350159
aF0.0830116793513298
aF0.04974058270454407
aF0.04606924206018448
aF0.0610327422618866
aF0.060624860227108
aF0.056312624365091324
aF0.07112845033407211
aF0.06205294281244278
aF0.06477759778499603
aF0.049272336065769196
aF0.06731104105710983
aF0.06634648889303207
aF0.053415361791849136
aF0.06299605220556259
aF0.05786089599132538
aF0.049624424427747726
aF0.054336726665496826
aF0.03589082881808281
aF0.06984235346317291
aF0.06168583780527115
aF0.0618484728038311
aF0.07815563678741455
aF0.05338539183139801
aF0.07073938101530075
aF0.0696498304605484
aF0.059890128672122955
aF0.05510263890028
aF0.06911658495664597
aF0.06348365545272827
aF0.06289965659379959
aF0.06748607754707336
aF0.07323136180639267
aF0.06383316218852997
aF0.059894464910030365
aF0.0497828871011734
aF0.06662480533123016
aF0.0483168363571167
aF0.053875796496868134
aF0.0603286437690258
aF0.06329011917114258
aF0.05281474068760872
aF0.07162173092365265
aF0.06955640763044357
aF0.09063763916492462
aF0.07477287203073502
aF0.07044579833745956
aF0.056161828339099884
aF0.05121356248855591
aF0.06450316309928894
aF0.05370546877384186
aF0.07095692306756973
aF0.059015680104494095
aF0.05583731457591057
aF0.059019193053245544
aF0.04686444252729416
aF0.07081949710845947
aF0.05567646026611328
aF0.07670611143112183
aF0.05790013074874878
aF0.048678189516067505
aF0.06913544237613678
aF0.06416954100131989
aF0.06765902042388916
aF0.06245691329240799
aF0.0473310612142086
aF0.08153857290744781
aF0.06458461284637451
aF0.061785317957401276
aF0.07233711332082748
aF0.05618996173143387
aF0.06725886464118958
aF0.05351158231496811
aF0.05445234104990959
aF0.0654662474989891
aF0.052747320383787155
aF0.05738170072436333
aF0.06789488345384598
aF0.06478851288557053
aF0.05477182939648628
aF0.06159985065460205
aF0.055514007806777954
aF0.07042571902275085
aF0.05273625999689102
aF0.05518731474876404
aF0.0627627745270729
aF0.05505313351750374
aF0.05172794684767723
aF0.05615553259849548
aF0.06441295892000198
aF0.07393355667591095
aF0.04852404072880745
aF0.07286378741264343
aF0.06276585906744003
aF0.07057822495698929
aF0.048730991780757904
aF0.07696375995874405
aF0.05433054640889168
aF0.059224072843790054
aF0.044976044446229935
aF0.07161140441894531
aF0.06750676035881042
aF0.057269386947155
aF0.06364806741476059
aF0.061319511383771896
aF0.06062094867229462
aF0.057059936225414276
aF0.0671297013759613
aF0.05433947592973709
aF0.05670902505517006
aF0.05740458890795708
aF0.06730087101459503
aF0.05609295144677162
aF0.06901897490024567
aF0.05614905059337616
aF0.061135727912187576
aF0.057376161217689514
aF0.06390216946601868
aF0.053377460688352585
aF0.054513536393642426
aF0.04100479185581207
aF0.07353062182664871
aF0.06799052655696869
aF0.06571229547262192
aF0.06395845115184784
aF0.05368723347783089
aF0.06296738237142563
aF0.06663455069065094
aF0.04659976065158844
aF0.08328686654567719
aF0.06189819425344467
aF0.04575107991695404
aF0.05097341164946556
aF0.0586235485970974
aF0.05290478467941284
aF0.06139277666807175
aF0.0784400999546051
aF0.06542397290468216
aF0.0756271630525589
aF0.06799530237913132
aF0.06494780629873276
aF0.06527147442102432
aF0.0589730441570282
aF0.07080615311861038
aF0.08033516258001328
aF0.0620403066277504
aF0.06947485357522964
aF0.05695384368300438
aF0.05237068235874176
aF0.061773914843797684
aF0.059818122535943985
aF0.03768916800618172
aF0.06674940139055252
aF0.08567141741514206
aF0.0631917268037796
aF0.05121055990457535
aF0.06919804960489273
aF0.06973554939031601
aF0.061007868498563766
aF0.04873484745621681
aF0.05631734058260918
aF0.05798215791583061
aF0.05780956521630287
aF0.04999496415257454
aF0.07684172689914703
aF0.05994166061282158
aF0.05219395458698273
aF0.0476946085691452
aF0.059747613966464996
aF0.06691942363977432
aF0.05275600031018257
aF0.07798463106155396
aF0.05959857627749443
aF0.06704337149858475
aF0.058001741766929626
aF0.05164862424135208
aF0.07207636535167694
aF0.07112986594438553
aF0.0636141374707222
aF0.05102419853210449
aF0.054637275636196136
aF0.06686299294233322
aF0.06450726091861725
aF0.053966544568538666
aF0.0478580966591835
aF0.05576840788125992
aF0.06719377636909485
aF0.07264392822980881
aF0.0658794641494751
aF0.06240757927298546
aF0.041574954986572266
aF0.055334821343421936
aF0.08031411468982697
aF0.06332692503929138
aF0.06334906071424484
aF0.05574895069003105
aF0.05640733614563942
aF0.06585627049207687
aF0.06267498433589935
aF0.047667913138866425
aF0.06527885794639587
aF0.06468885391950607
aF0.08388509601354599
aF0.07575865834951401
aF0.0905427634716034
aF0.06877485662698746
aF0.06102841719985008
aF0.05345674976706505
aF0.053279392421245575
aF0.06652836501598358
aF0.06669972091913223
aF0.07026311755180359
aF0.08801943808794022
aF0.052683036774396896
aF0.06364371627569199
aF0.06980233639478683
aF0.07203245162963867
aF0.04231272265315056
aF0.08310797810554504
aF0.04754246398806572
aF0.06092120334506035
aF0.0690496414899826
aF0.06442473083734512
aF0.06445953994989395
aF0.06417054682970047
aF0.06127604842185974
aF0.056250087916851044
aF0.06165318563580513
aF0.06099550053477287
aF0.06533690541982651
aF0.050397247076034546
aF0.07212132960557938
aF0.07724064588546753
aF0.053263597190380096
aF0.06491130590438843
aF0.06575092673301697
aF0.06518454849720001
aF0.06858157366514206
aF0.05632314085960388
aF0.06623324006795883
aF0.055269625037908554
aF0.04923468828201294
aF0.0731942355632782
aF0.055023230612277985
aF0.04600115865468979
aF0.04671477526426315
aF0.044371917843818665
aF0.043498486280441284
aF0.05548914894461632
aF0.06292813271284103
aF0.05923035740852356
aF0.06398269534111023
aF0.0763995423913002
aF0.05309396982192993
aF0.06914624571800232
aF0.07241988182067871
aF0.06523881107568741
aF0.05389075353741646
aF0.039606723934412
aF0.056395214051008224
aF0.05992531776428223
aF0.0681571364402771
aF0.06200621277093887
aF0.06513530015945435
aF0.0626303181052208
aF0.05839058384299278
aF0.07146559655666351
aF0.06848116964101791
aF0.06936108320951462
aF0.06664041429758072
aF0.07389939576387405
aF0.061355188488960266
aF0.03362760320305824
aF0.05984010174870491
aF0.06862612068653107
aF0.050996605306863785
aF0.04407869651913643
aF0.04560885578393936
aF0.08646079897880554
aF0.055468764156103134
aF0.0651664286851883
aF0.06496648490428925
aF0.04519921541213989
aF0.05059555172920227
aF0.051870185881853104
aF0.07982492446899414
aF0.051144614815711975
aF0.04555943235754967
aF0.05994435027241707
aF0.061605844646692276
aF0.05880315229296684
aF0.07671725749969482
aF0.059865131974220276
aF0.07017301023006439
aF0.048674143850803375
aF0.06901225447654724
aF0.06872057914733887
aF0.05182970315217972
aF0.06116246432065964
aF0.05665417015552521
aF0.04770141467452049
aF0.05514657497406006
aF0.03827669844031334
aF0.06818383932113647
aF0.0675484910607338
aF0.06062149256467819
aF0.07367666065692902
aF0.05553075298666954
aF0.07118480652570724
aF0.07186004519462585
aF0.055860958993434906
aF0.056281328201293945
aF0.06580391526222229
aF0.0633908361196518
aF0.062323905527591705
aF0.06443934142589569
aF0.06755396723747253
aF0.06387081742286682
aF0.058551207184791565
aF0.05615012347698212
aF0.06455519050359726
aF0.04642344266176224
aF0.06200419366359711
aF0.05969453975558281
aF0.06289535015821457
aF0.05491834506392479
aF0.07022731006145477
aF0.06884033977985382
aF0.09153620153665543
aF0.07240463048219681
aF0.06858223676681519
aF0.06330478191375732
aF0.048550840467214584
aF0.07012250274419785
aF0.05445699021220207
aF0.07478588074445724
aF0.06163395568728447
aF0.05761643499135971
aF0.06087122857570648
aF0.0475289449095726
aF0.06591284275054932
aF0.055185697972774506
aF0.07557278126478195
aF0.06432878971099854
aF0.04687703400850296
aF0.06806202977895737
aF0.06351625174283981
aF0.06366213411092758
aF0.06375083327293396
aF0.04921086132526398
aF0.08479739725589752
aF0.07077758759260178
aF0.06234530359506607
aF0.07061014324426651
aF0.05696053430438042
aF0.06556692719459534
aF0.0573776550590992
aF0.05384500324726105
aF0.064430370926857
aF0.05257295444607735
aF0.05153123661875725
aF0.07111704349517822
aF0.06446105986833572
aF0.05585191026329994
aF0.06126229092478752
aF0.05363493785262108
aF0.06726645678281784
aF0.053730424493551254
aF0.054072361439466476
aF0.0653582364320755
aF0.05168333649635315
aF0.05317545309662819
aF0.05614757165312767
aF0.06692380458116531
aF0.07158523797988892
aF0.052092451602220535
aF0.07248382270336151
aF0.05843348056077957
aF0.0704132616519928
aF0.04588737711310387
aF0.08080344647169113
aF0.05291556566953659
aF0.06053825467824936
aF0.04593828693032265
aF0.07402440905570984
aF0.0668160542845726
aF0.055960819125175476
aF0.06727402657270432
aF0.06300733983516693
aF0.05881795659661293
aF0.057199787348508835
aF0.06551672518253326
aF0.050663258880376816
aF0.055938683450222015
aF0.05491221323609352
aF0.06948550790548325
aF0.05871419236063957
aF0.06894566118717194
aF0.054701320827007294
aF0.05585703253746033
aF0.056348856538534164
aF0.06364937871694565
aF0.05169561505317688
aF0.059932269155979156
aF0.04376920312643051
aF0.07598346471786499
aF0.0677424818277359
aF0.06757816672325134
aF0.06099754571914673
aF0.04947536066174507
aF0.06381463259458542
aF0.06664515286684036
aF0.04508044570684433
aF0.07730013132095337
aF0.0670369490981102
aF0.04948167875409126
aF0.05261031910777092
aF0.05907962843775749
aF0.056099966168403625
aF0.06108086183667183
aF0.07721363753080368
aF0.065889872610569
aF0.07039369642734528
aF0.06827793270349503
aF0.06077298894524574
aF0.06418764591217041
aF0.05163630098104477
aF0.0673735961318016
aF0.07954233139753342
aF0.061463892459869385
aF0.06496534496545792
aF0.05544960871338844
aF0.05502111837267876
aF0.06298819184303284
aF0.06076769530773163
aF0.03767332434654236
aF0.06938400119543076
aF0.08511071652173996
aF0.059886638075113297
aF0.0501021072268486
aF0.06997783482074738
aF0.06686069816350937
aF0.06136634200811386
aF0.05030818656086922
aF0.05340995267033577
aF0.060615625232458115
aF0.05927947908639908
aF0.0457763634622097
aF0.07298526167869568
aF0.05702611058950424
aF0.05436982214450836
aF0.049356814473867416
aF0.06038889288902283
aF0.062435634434223175
aF0.05236304923892021
aF0.07367084920406342
aF0.05681110545992851
aF0.06478960812091827
aF0.05930431932210922
aF0.05388904735445976
aF0.07417788356542587
aF0.06984647363424301
aF0.06462638825178146
aF0.05521448701620102
aF0.054098352789878845
aF0.06263111531734467
aF0.06133437156677246
aF0.05284202843904495
aF0.04488104581832886
aF0.05601996183395386
aF0.06205182895064354
aF0.06801730394363403
aF0.07154519110918045
aF0.06259176880121231
aF0.04145605117082596
aF0.055235229432582855
aF0.07729373127222061
aF0.06750226765871048
aF0.057210423052310944
aF0.05843630060553551
aF0.05615833029150963
aF0.06419795751571655
aF0.06132592633366585
aF0.044956356287002563
aF0.06923964619636536
aF0.06404399126768112
aF0.0741906464099884
aF0.07856252044439316
aF0.08633432537317276
aF0.07637529075145721
aF0.061182569712400436
aF0.053376175463199615
aF0.050589438527822495
aF0.06569971889257431
aF0.06639274209737778
aF0.0717533677816391
aF0.08695803582668304
aF0.050327133387327194
aF0.06096089631319046
aF0.06860987842082977
aF0.07507742941379547
aF0.04210038110613823
aF0.07851377129554749
aF0.05309831723570824
aF0.06012890487909317
aF0.06481587886810303
aF0.06292669475078583
aF0.06395936012268066
aF0.06558090448379517
aF0.06323257088661194
aF0.05905787646770477
aF0.06704723089933395
aF0.061870086938142776
aF0.06104795262217522
aF0.05004061385989189
aF0.07105214893817902
aF0.08135782182216644
aF0.0513683520257473
aF0.06375203281641006
aF0.059549424797296524
aF0.06949406862258911
aF0.06657112389802933
aF0.05047380179166794
aF0.07180622965097427
aF0.05333222448825836
aF0.04691437631845474
aF0.07174696028232574
aF0.054741062223911285
aF0.04712182655930519
aF0.04922724887728691
aF0.04120567813515663
aF0.043256714940071106
aF0.05353407934308052
aF0.0664190724492073
aF0.05864248052239418
aF0.06410693377256393
aF0.07199148088693619
aF0.05318452790379524
aF0.06456717848777771
aF0.07008998841047287
aF0.0604136623442173
aF0.05074284225702286
aF0.04352514445781708
aF0.05378267168998718
aF0.0573117733001709
aF0.06956001371145248
aF0.06149847432971001
aF0.06356125324964523
aF0.06377894431352615
aF0.06100567802786827
aF0.06572045385837555
aF0.07534532994031906
aF0.07162437587976456
aF0.06715692579746246
aF0.07765026390552521
aF0.05867630988359451
aF0.03390870243310928
aF0.0625266581773758
aF0.0722796767950058
aF0.051218219101428986
aF0.040022969245910645
aF0.04745277017354965
aF0.08236752450466156
aF0.05664975196123123
aF0.0725100189447403
aF0.06588594615459442
aF0.04574831575155258
aF0.0492253378033638
aF0.05524877458810806
aF0.08276590704917908
aF0.04667019471526146
aF0.0500945970416069
aF0.05688256397843361
aF0.06526736915111542
aF0.05894744396209717
aF0.07215164601802826
aF0.06203484907746315
aF0.0677020400762558
aF0.04865385964512825
aF0.06772501766681671
aF0.06742988526821136
aF0.04939718917012215
aF0.06248852610588074
aF0.05670434236526489
aF0.04682593420147896
aF0.05421752482652664
aF0.036241769790649414
aF0.07215973734855652
aF0.06713418662548065
aF0.060535188764333725
aF0.0784592479467392
aF0.05336970090866089
aF0.07447154074907303
aF0.0679778978228569
aF0.05719997361302376
aF0.05412650108337402
aF0.0728818029165268
aF0.06064477935433388
aF0.0618290901184082
aF0.06571752578020096
aF0.07200665771961212
aF0.06528373062610626
aF0.05367507040500641
aF0.05557600408792496
aF0.06393691897392273
aF0.04704383760690689
aF0.05559787526726723
aF0.06261104345321655
aF0.06514310836791992
aF0.055615391582250595
aF0.06994926929473877
aF0.06535086780786514
aF0.08879059553146362
aF0.06750959157943726
aF0.0728687047958374
aF0.05812663212418556
aF0.053633227944374084
aF0.06763699650764465
aF0.05162348970770836
aF0.06657340377569199
aF0.05917161703109741
aF0.055271320044994354
aF0.06027832254767418
aF0.046188026666641235
aF0.06620912253856659
aF0.057753775268793106
aF0.07316780835390091
aF0.06048081815242767
aF0.0513530932366848
aF0.06836165487766266
aF0.06525100022554398
aF0.06081460416316986
aF0.06292276829481125
aF0.04985952377319336
aF0.08471272140741348
aF0.06769609451293945
aF0.060531072318553925
aF0.07171926647424698
aF0.056770965456962585
aF0.061745330691337585
aF0.057626333087682724
aF0.05762958154082298
aF0.062364451587200165
aF0.05220475047826767
aF0.05249056965112686
aF0.07144215703010559
aF0.06642422080039978
aF0.05385317653417587
aF0.05639859288930893
aF0.05669020861387253
aF0.06967955082654953
aF0.054917242377996445
aF0.05775972083210945
aF0.06741482019424438
aF0.04909441992640495
aF0.05561923608183861
aF0.05607021227478981
aF0.06666643172502518
aF0.07304154336452484
aF0.04772178828716278
aF0.07630226761102676
aF0.058322545140981674
aF0.07312721014022827
aF0.046181805431842804
aF0.07782598584890366
aF0.05648333579301834
aF0.06097588315606117
aF0.04260767251253128
aF0.07265623658895493
aF0.06540925055742264
aF0.05469353869557381
aF0.06441842019557953
aF0.06512480229139328
aF0.05198591202497482
aF0.061157964169979095
aF0.06764174997806549
aF0.048596594482660294
aF0.05563179403543472
aF0.058687154203653336
aF0.06876854598522186
aF0.0586606003344059
aF0.07035121321678162
aF0.05673109367489815
aF0.057244982570409775
aF0.054640065878629684
aF0.06236090883612633
aF0.05290933698415756
aF0.05785331875085831
aF0.041231997311115265
aF0.0757230669260025
aF0.06474316120147705
aF0.06546580791473389
aF0.0627502053976059
aF0.05225210264325142
aF0.06184179708361626
aF0.06557416170835495
aF0.046153564006090164
aF0.07502719759941101
aF0.06318718194961548
aF0.04922612011432648
aF0.05339723825454712
aF0.05306477099657059
aF0.0520760603249073
aF0.06139558553695679
aF0.07710102945566177
aF0.06801070272922516
aF0.06846784055233002
aF0.06897778064012527
aF0.06073063611984253
aF0.061316512525081635
aF0.05984185263514519
aF0.06443867087364197
aF0.07490266114473343
aF0.06405919790267944
aF0.07459255307912827
aF0.052920833230018616
aF0.05378209426999092
aF0.061344124376773834
aF0.05976110324263573
aF0.037845224142074585
aF0.0624154657125473
aF0.08166573941707611
aF0.05959176644682884
aF0.05361850932240486
aF0.06820863485336304
aF0.0672854632139206
aF0.06140200048685074
aF0.046537574380636215
aF0.05845528095960617
aF0.060039959847927094
aF0.0629027932882309
aF0.049809783697128296
aF0.06969457864761353
aF0.06080048903822899
aF0.055532339960336685
aF0.04926705360412598
aF0.0594768300652504
aF0.06563408672809601
aF0.055806200951337814
aF0.07434254884719849
aF0.058997347950935364
aF0.06308891624212265
aF0.05496451258659363
aF0.05186975747346878
aF0.07005802541971207
aF0.07510323822498322
aF0.06660360842943192
aF0.05344359204173088
aF0.0552234910428524
aF0.06750620901584625
aF0.05905088782310486
aF0.054345566779375076
aF0.04477531462907791
aF0.056845325976610184
aF0.06744714081287384
aF0.0703396424651146
aF0.06763659417629242
aF0.06398115307092667
aF0.03855035454034805
aF0.05459854006767273
aF0.08010637015104294
aF0.06180384382605553
aF0.05615512654185295
aF0.05587303638458252
aF0.05132824555039406
aF0.06811964511871338
aF0.06095742806792259
aF0.04246906191110611
aF0.06578971445560455
aF0.06677800416946411
aF0.07862848043441772
aF0.07732752710580826
aF0.0907529965043068
aF0.07405567169189453
aF0.05771390348672867
aF0.05547993257641792
aF0.05467517301440239
aF0.06624651700258255
aF0.06741240620613098
aF0.07011036574840546
aF0.08251551538705826
aF0.051487997174263
aF0.05788245052099228
aF0.06479266285896301
aF0.07255017012357712
aF0.04148203507065773
aF0.08455393463373184
aF0.04875221848487854
aF0.06071297079324722
aF0.06738464534282684
aF0.06602543592453003
aF0.06133456155657768
aF0.06922304630279541
aF0.06642211973667145
aF0.062244877219200134
aF0.05751518905162811
aF0.06173521280288696
aF0.06343226879835129
aF0.05138154700398445
aF0.070987768471241
aF0.0754774659872055
aF0.053710997104644775
aF0.0625336766242981
aF0.06424938142299652
aF0.06813191622495651
aF0.06817536801099777
aF0.0541977733373642
aF0.06411203742027283
aF0.052848052233457565
aF0.04828375205397606
aF0.07122018933296204
aF0.05027814581990242
aF0.04409996420145035
aF0.048741664737463
aF0.03833132982254028
aF0.042023904621601105
aF0.05221822112798691
aF0.06457777321338654
aF0.056411370635032654
aF0.06164656579494476
aF0.07854310423135757
aF0.05546126514673233
aF0.06517469137907028
aF0.07231137156486511
aF0.06484943628311157
aF0.05092284455895424
aF0.04212458059191704
aF0.05733642727136612
aF0.059956520795822144
aF0.06852592527866364
aF0.06250021606683731
aF0.06482195854187012
aF0.06106989458203316
aF0.05689103156328201
aF0.07095108926296234
aF0.06857391446828842
aF0.07126475870609283
aF0.06047683581709862
aF0.07500220090150833
aF0.061281006783246994
aF0.03650341555476189
aF0.06256791949272156
aF0.06870374083518982
aF0.04946202039718628
aF0.0404023714363575
aF0.048221148550510406
aF0.08606075495481491
aF0.05331717059016228
aF0.06891757994890213
aF0.06458378583192825
aF0.048618827015161514
aF0.04933442920446396
aF0.06105148047208786
aF0.08474341779947281
aF0.05116960406303406
aF0.046377427875995636
aF0.05704889073967934
aF0.05856317654252052
aF0.05653035268187523
aF0.07510339468717575
aF0.059445954859256744
aF0.0664483830332756
aF0.0441942922770977
aF0.0660644918680191
aF0.06773235648870468
aF0.04908466711640358
aF0.061608001589775085
aF0.0575859397649765
aF0.04767594859004021
aF0.0546814501285553
aF0.038322970271110535
aF0.07218798249959946
aF0.06436894834041595
aF0.0630798414349556
aF0.07576579600572586
aF0.053863879293203354
aF0.07178091257810593
aF0.07043316215276718
aF0.05790451541543007
aF0.060363832861185074
aF0.06844252347946167
aF0.06636246293783188
aF0.06217034161090851
aF0.07606067508459091
aF0.07634145766496658
aF0.06458023935556412
aF0.05509158596396446
aF0.050374727696180344
aF0.06289823353290558
aF0.04707964137196541
aF0.05984712019562721
aF0.059557296335697174
aF0.06577339768409729
aF0.057639338076114655
aF0.07011564821004868
aF0.06600554287433624
aF0.08798692375421524
aF0.06999827921390533
aF0.06844815611839294
aF0.055956508964300156
aF0.054775774478912354
aF0.06935857236385345
aF0.05122514069080353
aF0.07081829756498337
aF0.060618046671152115
aF0.05803978815674782
aF0.06390267610549927
aF0.045863982290029526
aF0.06208024546504021
aF0.056013718247413635
aF0.07302474230527878
aF0.06529655307531357
aF0.048139482736587524
aF0.0658307746052742
aF0.06697715073823929
aF0.06491822004318237
aF0.06251281499862671
aF0.04596933722496033
aF0.08607163280248642
aF0.07154720276594162
aF0.061185322701931
aF0.0705450028181076
aF0.05790720507502556
aF0.06630807369947433
aF0.05679507181048393
aF0.05318465083837509
aF0.058779407292604446
aF0.055753178894519806
aF0.054840654134750366
aF0.07096423953771591
aF0.06518814712762833
aF0.05700422823429108
aF0.058142099529504776
aF0.05484897643327713
aF0.06876710802316666
aF0.05293111503124237
aF0.05844283103942871
aF0.06474394351243973
aF0.05116408318281174
aF0.055318981409072876
aF0.056878384202718735
aF0.06880068778991699
aF0.0722016915678978
aF0.05176609382033348
aF0.07374849915504456
aF0.05983610451221466
aF0.06587507575750351
aF0.04725828394293785
aF0.08048318326473236
aF0.05677727982401848
aF0.06199010834097862
aF0.04353820160031319
aF0.0719260573387146
aF0.06639467924833298
aF0.05681268870830536
aF0.06762649863958359
aF0.06401335448026657
aF0.06007164716720581
aF0.061546649783849716
aF0.06828076392412186
aF0.05328259617090225
aF0.06119813397526741
aF0.05542030185461044
aF0.06947576999664307
aF0.05528603866696358
aF0.06910041719675064
aF0.05646028369665146
aF0.05721750482916832
aF0.059382256120443344
aF0.06586288660764694
aF0.05283645913004875
aF0.052067164331674576
aF0.046294670552015305
aF0.0765964463353157
aF0.06521280109882355
aF0.06636498868465424
aF0.0607309490442276
aF0.05615759640932083
aF0.061480265110731125
aF0.06427349150180817
aF0.045319490134716034
aF0.07850707322359085
aF0.0663493201136589
aF0.04757210612297058
aF0.051338549703359604
aF0.06019968539476395
aF0.053264494985342026
aF0.064442940056324
aF0.07860957831144333
aF0.06342310458421707
aF0.06873410195112228
aF0.06579616665840149
aF0.0594046451151371
aF0.06370451301336288
aF0.05678514018654823
aF0.0679919570684433
aF0.07742994278669357
aF0.06223326176404953
aF0.07030132412910461
aF0.05472533777356148
aF0.05223720148205757
aF0.059807196259498596
aF0.05861600115895271
aF0.03976399451494217
aF0.06043816730380058
aF0.07898057252168655
aF0.06107109785079956
aF0.04816056787967682
aF0.06819594651460648
aF0.06808240711688995
aF0.06510619819164276
aF0.04704931750893593
aF0.053867749869823456
aF0.05728508532047272
aF0.06195710599422455
aF0.050687648355960846
aF0.07635395228862762
aF0.055095572024583817
aF0.051453299820423126
aF0.04922251030802727
aF0.060364533215761185
aF0.06528972834348679
aF0.05155040696263313
aF0.07363401353359222
aF0.054305896162986755
aF0.06483468413352966
aF0.06099637970328331
aF0.054000772535800934
aF0.07189357280731201
aF0.07107923179864883
aF0.06395388394594193
aF0.055985115468502045
aF0.057217661291360855
aF0.06555676460266113
aF0.0642499178647995
aF0.05126604437828064
aF0.04937473684549332
aF0.055351145565509796
aF0.06475674360990524
aF0.07114317268133163
aF0.06611534208059311
aF0.06130419671535492
aF0.03974677994847298
aF0.05919774994254112
aF0.07351319491863251
aF0.06286603212356567
aF0.060010384768247604
aF0.05490728095173836
aF0.05403713136911392
aF0.06924375891685486
aF0.06397910416126251
aF0.0402364656329155
aF0.06523586809635162
aF0.06483446061611176
aF0.07610464841127396
aF0.07196095585823059
aF0.08112484961748123
aF0.0699029415845871
aF0.062391672283411026
aF0.051462724804878235
aF0.052904754877090454
aF0.06965050846338272
aF0.06750056892633438
aF0.06781714409589767
aF0.08568701893091202
aF0.050146203488111496
aF0.059530891478061676
aF0.06221991404891014
aF0.07491836696863174
aF0.04140913859009743
aF0.07727336883544922
aF0.04942581057548523
aF0.06488298624753952
aF0.06505904346704483
aF0.06632056087255478
aF0.06393401324748993
aF0.06737789511680603
aF0.06172036752104759
aF0.06044948101043701
aF0.061044059693813324
aF0.06166635453701019
aF0.061782486736774445
aF0.04801345616579056
aF0.0740567147731781
aF0.0794668197631836
aF0.054416075348854065
aF0.06227516755461693
aF0.06520476937294006
aF0.06466110795736313
aF0.06262341141700745
aF0.05018984526395798
aF0.06731051951646805
aF0.05495985969901085
aF0.04997974634170532
aF0.06594989448785782
aF0.053084250539541245
aF0.04514261335134506
aF0.047997504472732544
aF0.042311299592256546
aF0.04135435074567795
aF0.05333996191620827
aF0.0645136833190918
aF0.06169895827770233
aF0.06824000924825668
aF0.07226042449474335
aF0.05321798101067543
aF0.0667799711227417
aF0.06696543842554092
aF0.059549275785684586
aF0.05065593123435974
aF0.043623186647892
aF0.05151910334825516
aF0.059749238193035126
aF0.07014279067516327
aF0.0619436651468277
aF0.0619807206094265
aF0.06764691323041916
aF0.05992154777050018
aF0.06641624122858047
aF0.07126902043819427
aF0.07005558162927628
aF0.06741508841514587
aF0.07566291838884354
aF0.06238815560936928
aF0.03591228276491165
aF0.06247711181640625
aF0.06815913319587708
aF0.047034211456775665
aF0.04123253375291824
aF0.048990488052368164
aF0.08330586552619934
aF0.053757939487695694
aF0.066688671708107
aF0.07012657821178436
aF0.04417217895388603
aF0.051415398716926575
aF0.057009369134902954
aF0.08137188851833344
aF0.04630866274237633
aF0.04661400616168976
aF0.05948583781719208
aF0.06149258464574814
aF0.057570744305849075
aF0.07345261424779892
aF0.06318048387765884
aF0.06646433472633362
aF0.04828299582004547
aF0.06753795593976974
aF0.07187952846288681
aF0.0533030740916729
aF0.05875476077198982
aF0.057198792695999146
aF0.05000632628798485
aF0.052970245480537415
aF0.03535199910402298
aF0.07169483602046967
aF0.06468687206506729
aF0.06345544010400772
aF0.07279273867607117
aF0.054842911660671234
aF0.07452777773141861
aF0.06862416118383408
aF0.058146506547927856
aF0.05402690917253494
aF0.06663218140602112
aF0.06444639712572098
aF0.06013892963528633
aF0.06708751618862152
aF0.0728297308087349
aF0.06708424538373947
aF0.05642593279480934
aF0.05070807784795761
aF0.06523139774799347
aF0.04785982891917229
aF0.05872169882059097
aF0.059703677892684937
aF0.06579532474279404
aF0.05166563764214516
aF0.07153947651386261
aF0.06465335190296173
aF0.09236843138933182
aF0.06696075201034546
aF0.06828397512435913
aF0.05673309788107872
aF0.0537455715239048
aF0.06500836461782455
aF0.05441055819392204
aF0.06786878407001495
aF0.056176815181970596
aF0.052797503769397736
aF0.05841461569070816
aF0.048134543001651764
aF0.06311377137899399
aF0.054442986845970154
aF0.07072252780199051
aF0.061367493122816086
aF0.048056796193122864
aF0.06981290131807327
aF0.0641382709145546
aF0.06122354045510292
aF0.06344947218894958
aF0.04770459979772568
aF0.08806315064430237
aF0.06763032078742981
aF0.060521624982357025
aF0.06959698349237442
aF0.051387570798397064
aF0.06513741612434387
aF0.05789904296398163
aF0.05265707150101662
aF0.06001574918627739
aF0.05041636526584625
aF0.05604255571961403
aF0.07198353856801987
aF0.06995782256126404
aF0.056266963481903076
aF0.06227689981460571
aF0.0588318407535553
aF0.06429080665111542
aF0.05500016361474991
aF0.05538126453757286
aF0.05827728658914566
aF0.050104789435863495
aF0.05335855484008789
aF0.05553607642650604
aF0.06744535267353058
aF0.0702265128493309
aF0.050439946353435516
aF0.07267066091299057
aF0.06486102938652039
aF0.07439856231212616
aF0.04799550026655197
aF0.07850421220064163
aF0.05403687432408333
aF0.060292117297649384
aF0.04269670322537422
aF0.06954513490200043
aF0.0658750832080841
aF0.05742748826742172
aF0.06855068355798721
aF0.06606751680374146
aF0.05653884634375572
aF0.060345638543367386
aF0.0659874677658081
aF0.052556779235601425
aF0.05874316766858101
aF0.052611060440540314
aF0.06600189954042435
aF0.05084266513586044
aF0.07001379132270813
aF0.056673482060432434
aF0.054067596793174744
aF0.05522427707910538
aF0.06554197520017624
aF0.050969723612070084
aF0.05523687228560448
aF0.040776051580905914
aF0.07268722355365753
aF0.06664737313985825
aF0.06586895883083344
aF0.06364622712135315
aF0.054379940032958984
aF0.06071871519088745
aF0.07162511348724365
aF0.04926318675279617
aF0.074801504611969
aF0.06469899415969849
aF0.050012920051813126
aF0.05451320484280586
aF0.0586986318230629
aF0.05291759595274925
aF0.06129288673400879
aF0.07589659094810486
aF0.06919572502374649
aF0.06746315211057663
aF0.06530580669641495
aF0.05853917449712753
aF0.060681022703647614
aF0.057831522077322006
aF0.06962309032678604
aF0.07253295183181763
aF0.061888787895441055
aF0.070493184030056
aF0.05370354279875755
aF0.05636530742049217
aF0.06520459055900574
aF0.05829739198088646
aF0.03795056417584419
aF0.062024544924497604
aF0.0828307494521141
aF0.057980433106422424
aF0.05140352621674538
aF0.07286591827869415
aF0.06890803575515747
aF0.06100727990269661
aF0.0449570007622242
aF0.05498318374156952
aF0.05719901993870735
aF0.060794807970523834
aF0.04562699794769287
aF0.07489743083715439
aF0.05705239251255989
aF0.05144169554114342
aF0.048302918672561646
aF0.06134158745408058
aF0.06310092657804489
aF0.05384266376495361
aF0.0728323832154274
aF0.05214543640613556
aF0.06506127864122391
aF0.059798069298267365
aF0.05331719294190407
aF0.07174605876207352
aF0.0715506449341774
aF0.061509475111961365
aF0.05356208607554436
aF0.054479505866765976
aF0.06536559760570526
aF0.05830046534538269
aF0.05438973754644394
aF0.04873856529593468
aF0.057060495018959045
aF0.06693577021360397
aF0.06778091192245483
aF0.06659016013145447
aF0.06233026832342148
aF0.040427543222904205
aF0.05537882074713707
aF0.07256469875574112
aF0.06108161807060242
aF0.05635542422533035
aF0.05537686496973038
aF0.05576561018824577
aF0.0689050555229187
aF0.06132911518216133
aF0.04569896310567856
aF0.06830191612243652
aF0.0626724511384964
aF0.07915318757295609
aF0.07798971980810165
aF0.08982286602258682
aF0.06911090761423111
aF0.059853024780750275
aF0.05541766807436943
aF0.053103383630514145
aF0.0656309500336647
aF0.06651431322097778
aF0.06663235276937485
aF0.08717311173677444
aF0.05366921052336693
aF0.060748592019081116
aF0.06864596158266068
aF0.07376351207494736
aF0.04270068556070328
aF0.08220628648996353
aF0.04942448437213898
aF0.05986427888274193
aF0.06671176850795746
aF0.06083295866847038
aF0.062465693801641464
aF0.06412011384963989
aF0.06267337501049042
aF0.06289345771074295
aF0.0636182352900505
aF0.05847940221428871
aF0.06085823476314545
aF0.050852999091148376
aF0.07272205501794815
aF0.07765188068151474
aF0.05230129882693291
aF0.060015298426151276
aF0.06422463804483414
aF0.06612563133239746
aF0.06974814087152481
aF0.05265143886208534
aF0.06941844522953033
aF0.05188659578561783
aF0.05101364478468895
aF0.06668905913829803
aF0.052203793078660965
aF0.04683004692196846
aF0.047336380928754807
aF0.040408357977867126
aF0.039488594979047775
aF0.05225668102502823
aF0.0636274442076683
aF0.06067477539181709
aF0.06623774766921997
aF0.07823152095079422
aF0.05158400908112526
aF0.06284283101558685
aF0.06903589516878128
aF0.06134626641869545
aF0.05086776614189148
aF0.04076957702636719
aF0.05028913542628288
aF0.05897727236151695
aF0.06899169832468033
aF0.057118941098451614
aF0.06275295466184616
aF0.06526084244251251
aF0.059910327196121216
aF0.06820929795503616
aF0.06932664662599564
aF0.06867573410272598
aF0.06674488633871078
aF0.07361549139022827
aF0.059946149587631226
aF0.033416636288166046
aF0.059804655611515045
aF0.07116939127445221
aF0.0455571711063385
aF0.0405590757727623
aF0.045098889619112015
aF0.08845048397779465
aF0.057629697024822235
aF0.06810528039932251
aF0.06268681585788727
aF0.047634851187467575
aF0.05062320455908775
aF0.0569612979888916
aF0.08084285259246826
aF0.04820713400840759
aF0.05140773952007294
aF0.05762210115790367
aF0.061588987708091736
aF0.05891890078783035
aF0.07544003427028656
aF0.060623180121183395
aF0.07051358371973038
aF0.04449693113565445
aF0.06630419194698334
aF0.06768397986888885
aF0.05231114849448204
aF0.06705664098262787
aF0.05966247618198395
aF0.045812103897333145
aF0.05216074734926224
aF0.035933829843997955
aF0.06930049508810043
aF0.06516356021165848
aF0.061793163418769836
aF0.07542242854833603
aF0.05650759115815163
aF0.07438607513904572
aF0.07098004966974258
aF0.05755682289600372
aF0.050656840205192566
aF0.07073881477117538
aF0.06110483780503273
aF0.06318318843841553
aF0.06982771307229996
aF0.0785379484295845
aF0.0633574053645134
aF0.05589617043733597
aF0.05838315933942795
aF0.06494203209877014
aF0.05201011151075363
aF0.0564245767891407
aF0.05805951729416847
aF0.06360998749732971
aF0.05690242350101471
aF0.07052832096815109
aF0.0660560131072998
aF0.095093734562397
aF0.06912890076637268
aF0.06633850187063217
aF0.0549580380320549
aF0.05265429988503456
aF0.06617797166109085
aF0.052670374512672424
aF0.0706583634018898
aF0.0600227490067482
aF0.05846980959177017
aF0.06263747811317444
aF0.04689100757241249
aF0.06601101160049438
aF0.05489364266395569
aF0.0746731087565422
aF0.06048621982336044
aF0.05090462788939476
aF0.06898852437734604
aF0.06866048276424408
aF0.06279023736715317
aF0.06107283756136894
aF0.04867398366332054
aF0.0854513868689537
aF0.06753335893154144
aF0.06207084283232689
aF0.068401038646698
aF0.054575953632593155
aF0.06477000564336777
aF0.0600641705095768
aF0.054741207510232925
aF0.06313569843769073
aF0.051558516919612885
aF0.05455530434846878
aF0.0702851340174675
aF0.06594741344451904
aF0.05553480237722397
aF0.05969662964344025
aF0.05659350007772446
aF0.06600315123796463
aF0.053942836821079254
aF0.056950367987155914
aF0.058061592280864716
aF0.04781002551317215
aF0.053701091557741165
aF0.0553593747317791
aF0.066363625228405
aF0.06947965919971466
aF0.048330530524253845
aF0.07436028122901917
aF0.06021306663751602
aF0.07187274098396301
aF0.05249250307679176
aF0.08155310153961182
aF0.05445199832320213
aF0.06294651329517365
aF0.04481908306479454
aF0.0714634358882904
aF0.06465592980384827
aF0.055070675909519196
aF0.06795469671487808
aF0.06503508985042572
aF0.054130878299474716
aF0.05771971121430397
aF0.06321391463279724
aF0.052890073508024216
aF0.057579152286052704
aF0.05896906182169914
aF0.0666775330901146
aF0.057463038712739944
aF0.068322092294693
aF0.05515918508172035
aF0.060821373015642166
aF0.05393549054861069
aF0.06117672100663185
aF0.05360131710767746
aF0.05144573748111725
aF0.03999430686235428
aF0.07608900219202042
aF0.06768251210451126
aF0.0679505243897438
aF0.06445673108100891
aF0.055636435747146606
aF0.05998040735721588
aF0.07039766758680344
aF0.04751218110322952
aF0.07394658029079437
aF0.06817084550857544
aF0.04436463117599487
aF0.053308092057704926
aF0.05982465669512749
aF0.05206955596804619
aF0.05765319615602493
aF0.0784686878323555
aF0.06924467533826828
aF0.06778482347726822
aF0.06666422635316849
aF0.06165604293346405
aF0.06308814883232117
aF0.05532506853342056
aF0.06718678027391434
aF0.07533939182758331
aF0.05946057289838791
aF0.06968438625335693
aF0.05443614348769188
aF0.05452924594283104
aF0.05657987296581268
aF0.05880889669060707
aF0.040410906076431274
aF0.06464272737503052
aF0.08505108207464218
aF0.06012304872274399
aF0.051931239664554596
aF0.06789351999759674
aF0.0649271085858345
aF0.06052866205573082
aF0.045010630041360855
aF0.05432295799255371
aF0.05731905624270439
aF0.060202714055776596
aF0.04732392355799675
aF0.07821080088615417
aF0.05656542256474495
aF0.054835520684719086
aF0.04679253324866295
aF0.05772078409790993
aF0.06432680040597916
aF0.051786188036203384
aF0.07458993792533875
aF0.057753607630729675
aF0.06587233394384384
aF0.057595111429691315
aF0.053691666573286057
aF0.06781148910522461
aF0.07628344744443893
aF0.0627138614654541
aF0.05228780210018158
aF0.05592070892453194
aF0.06709833443164825
aF0.0626017227768898
aF0.055917199701070786
aF0.04622983559966087
aF0.05977849289774895
aF0.06143629923462868
aF0.06795899569988251
aF0.06655634939670563
aF0.061369020491838455
aF0.041044458746910095
aF0.057149045169353485
aF0.07566867768764496
aF0.059147149324417114
aF0.058980606496334076
aF0.05606631934642792
aF0.05386216938495636
aF0.06686010956764221
aF0.061806656420230865
aF0.044673796743154526
aF0.06450080126523972
aF0.06439933180809021
aF0.07933804392814636
aF0.0718320980668068
aF0.08992283791303635
aF0.0716090276837349
aF0.058727577328681946
aF0.05370836704969406
aF0.0534050315618515
aF0.06381186842918396
aF0.06927768886089325
aF0.06941554695367813
aF0.08570190519094467
aF0.05452538654208183
aF0.054848358035087585
aF0.0714169517159462
aF0.07103972882032394
aF0.04011881723999977
aF0.07991845905780792
aF0.05050036311149597
aF0.058717284351587296
aF0.06184660643339157
aF0.06243707239627838
aF0.05977530777454376
aF0.06477499008178711
aF0.06431205570697784
aF0.06248638778924942
aF0.06063316389918327
aF0.06269598007202148
aF0.06299418210983276
aF0.048414669930934906
aF0.07533015310764313
aF0.07604050636291504
aF0.05436098948121071
aF0.061854176223278046
aF0.06263034045696259
aF0.06630750000476837
aF0.06536219269037247
aF0.055075109004974365
aF0.06616342812776566
aF0.04837948828935623
aF0.05147000774741173
aF0.0680161714553833
aF0.05234441161155701
aF0.04248641058802605
aF0.04750387370586395
aF0.039610348641872406
aF0.04198393225669861
aF0.04680177941918373
aF0.06220003962516785
aF0.0621306411921978
aF0.07041212171316147
aF0.07392850518226624
aF0.05440152436494827
aF0.06458602845668793
aF0.07053853571414948
aF0.06449758261442184
aF0.0496487095952034
aF0.04565569385886192
aF0.05110153183341026
aF0.05593320354819298
aF0.06786682456731796
aF0.05840074270963669
aF0.06497946381568909
aF0.06787554174661636
aF0.06004646047949791
aF0.06576374173164368
aF0.06676135957241058
aF0.06662201136350632
aF0.06377586722373962
aF0.07726524025201797
aF0.059280361980199814
aF0.03375377506017685
aF0.060141317546367645
aF0.07365193963050842
aF0.0486859492957592
aF0.04308485612273216
aF0.04701242223381996
aF0.08062297850847244
aF0.055114783346652985
aF0.06559710204601288
aF0.06385990232229233
aF0.044562045484781265
aF0.046585626900196075
aF0.052632998675107956
aF0.08049415051937103
aF0.049904484301805496
aF0.048109021037817
aF0.05528923496603966
aF0.06017523631453514
aF0.055845290422439575
aF0.07268796116113663
aF0.0645461156964302
aF0.06462567299604416
aF0.047311652451753616
aF0.06959784775972366
aF0.07563567906618118
aF0.05088628828525543
aF0.06018779054284096
aF0.05853699520230293
aF0.052004680037498474
aF0.0533459447324276
aF0.038306377828121185
aF0.0729929655790329
aF0.06389495730400085
aF0.06175115332007408
aF0.0752103328704834
aF0.05761491879820824
aF0.07314485311508179
aF0.0681561604142189
aF0.0550684817135334
aF0.05363648012280464
aF0.06560128182172775
aF0.06570646166801453
aF0.06109052523970604
aF0.06728848069906235
aF0.06909087300300598
aF0.060456812381744385
aF0.05556078627705574
aF0.05265580117702484
aF0.06493113189935684
aF0.04888350889086723
aF0.055888958275318146
aF0.06359488517045975
aF0.05857206881046295
aF0.052341170608997345
aF0.07113361358642578
aF0.0633651465177536
aF0.09320180863142014
aF0.07261230796575546
aF0.07043758779764175
aF0.06078947335481644
aF0.04894660785794258
aF0.06794745475053787
aF0.055424533784389496
aF0.0700635015964508
aF0.057328592985868454
aF0.05567271634936333
aF0.06141606345772743
aF0.04678413271903992
aF0.06481298059225082
aF0.053485721349716187
aF0.07625851035118103
aF0.05772834271192551
aF0.0483018159866333
aF0.06714188307523727
aF0.0662570670247078
aF0.05890829488635063
aF0.06307247281074524
aF0.047124043107032776
aF0.0815231055021286
aF0.06558546423912048
aF0.05983623489737511
aF0.06611849367618561
aF0.05741537734866142
aF0.06567030400037766
aF0.05517309904098511
aF0.05651980638504028
aF0.05963527411222458
aF0.051378488540649414
aF0.05391346663236618
aF0.06909880042076111
aF0.06635427474975586
aF0.05493078753352165
aF0.06103448569774628
aF0.05550748482346535
aF0.06620843708515167
aF0.05573543906211853
aF0.05512174963951111
aF0.06506567448377609
aF0.04956909641623497
aF0.05376860499382019
aF0.05717017874121666
aF0.06721041351556778
aF0.07191130518913269
aF0.04924335330724716
aF0.07473765313625336
aF0.06033072620630264
aF0.07150914520025253
aF0.051907122135162354
aF0.08141283690929413
aF0.05582331120967865
aF0.05993138998746872
aF0.04559191316366196
aF0.06906471401453018
aF0.06434750556945801
aF0.05586417391896248
aF0.06308676302433014
aF0.06702707707881927
aF0.05582249164581299
aF0.05664453282952309
aF0.06475390493869781
aF0.051220156252384186
aF0.05699821189045906
aF0.057011425495147705
aF0.07016836851835251
aF0.06157403439283371
aF0.07027421146631241
aF0.058027684688568115
aF0.05795862153172493
aF0.056372079998254776
aF0.06273546814918518
aF0.05063365027308464
aF0.053833648562431335
aF0.03851159289479256
aF0.07724332064390182
aF0.06555089354515076
aF0.06673618406057358
aF0.06427177786827087
aF0.0529300682246685
aF0.06290238350629807
aF0.06927019357681274
aF0.04384876415133476
aF0.07894810289144516
aF0.058710914105176926
aF0.048400457948446274
aF0.053705476224422455
aF0.055740002542734146
aF0.052816033363342285
aF0.059290044009685516
aF0.07654552906751633
aF0.06896833330392838
aF0.06896612793207169
aF0.06661910563707352
aF0.060483191162347794
aF0.062119606882333755
aF0.05882105603814125
aF0.06801021844148636
aF0.07565165311098099
aF0.06057528778910637
aF0.07271388918161392
aF0.0494694709777832
aF0.0551113598048687
aF0.05730612576007843
aF0.058783892542123795
aF0.03841642662882805
aF0.06357080489397049
aF0.08124573528766632
aF0.061605244874954224
aF0.05136863887310028
aF0.06766863167285919
aF0.06497178971767426
aF0.05602540820837021
aF0.04530291259288788
aF0.0549389123916626
aF0.05789502337574959
aF0.06055193394422531
aF0.05169455707073212
aF0.07675828039646149
aF0.05612925440073013
aF0.052033014595508575
aF0.04652796685695648
aF0.057027995586395264
aF0.06432058662176132
aF0.0516296923160553
aF0.07249576598405838
aF0.0554838627576828
aF0.06335094571113586
aF0.05794486030936241
aF0.053259141743183136
aF0.07152551412582397
aF0.06879156082868576
aF0.06356160342693329
aF0.05457678064703941
aF0.055859047919511795
aF0.06444364786148071
aF0.05871979147195816
aF0.051447153091430664
aF0.04447206109762192
aF0.05418402701616287
aF0.06422977149486542
aF0.06817324459552765
aF0.06448912620544434
aF0.0628209188580513
aF0.04026763513684273
aF0.05614769831299782
aF0.07459447532892227
aF0.061554595828056335
aF0.05567128211259842
aF0.05401279032230377
aF0.056362248957157135
aF0.07019782066345215
aF0.05952532961964607
aF0.04476357623934746
aF0.06663955003023148
aF0.06140923872590065
aF0.07495728880167007
aF0.0740172415971756
aF0.08759654313325882
aF0.06929349899291992
aF0.061796046793460846
aF0.055501922965049744
aF0.055296748876571655
aF0.07017049193382263
aF0.06636463850736618
aF0.06786543875932693
aF0.08041860163211823
aF0.049924127757549286
aF0.06104350462555885
aF0.06505435705184937
aF0.0746549442410469
aF0.040647413581609726
aF0.08289229869842529
aF0.04918157309293747
aF0.05666857585310936
aF0.06292098760604858
aF0.061436768621206284
aF0.06217684596776962
aF0.06835892051458359
aF0.0648547038435936
aF0.057180989533662796
aF0.06294270604848862
aF0.0584004670381546
aF0.06043794006109238
aF0.05246150493621826
aF0.07272527366876602
aF0.07464636117219925
aF0.054667018353939056
aF0.059933535754680634
aF0.06385587900876999
aF0.06655064970254898
aF0.0674801915884018
aF0.05154271796345711
aF0.07015642523765564
aF0.051722295582294464
aF0.04935598000884056
aF0.07093333452939987
aF0.05241696164011955
aF0.045826323330402374
aF0.04975661262869835
aF0.03774891421198845
aF0.04037677124142647
aF0.05378599464893341
aF0.06394833326339722
aF0.06289882957935333
aF0.06366200745105743
aF0.071316197514534
aF0.05704010650515556
aF0.06577494740486145
aF0.0695003792643547
aF0.06287194788455963
aF0.05023173242807388
aF0.041729480028152466
aF0.05235427990555763
aF0.05437963455915451
aF0.06958100944757462
aF0.058507148176431656
aF0.06737436354160309
aF0.06313827633857727
aF0.057212989777326584
aF0.06562547385692596
aF0.06832144409418106
aF0.06977835297584534
aF0.06640037894248962
aF0.07523255050182343
aF0.06375637650489807
aF0.034971948713064194
aF0.06210053339600563
aF0.07144534587860107
aF0.04779580980539322
aF0.03975488245487213
aF0.0456843227148056
aF0.08021518588066101
aF0.05161690711975098
aF0.06570164859294891
aF0.06664013862609863
aF0.044221825897693634
aF0.04686281830072403
aF0.05737048014998436
aF0.0794566422700882
aF0.04942477494478226
aF0.04601629823446274
aF0.05643419548869133
aF0.06293166428804398
aF0.05698655545711517
aF0.07659660279750824
aF0.06414589285850525
aF0.0680222362279892
aF0.04583779349923134
aF0.0708819180727005
aF0.06824350357055664
aF0.0500347763299942
aF0.05885807052254677
aF0.05924998223781586
aF0.04694518446922302
aF0.05502494052052498
aF0.0388999804854393
aF0.07253910601139069
aF0.06404842436313629
aF0.06382941454648972
aF0.07219656556844711
aF0.05666227266192436
aF0.07470939308404922
aF0.06672684848308563
aF0.06170654296875
aF0.05587971955537796
aF0.06784748286008835
aF0.06332498788833618
aF0.062453992664813995
aF0.07039785385131836
aF0.07149466872215271
aF0.06199144572019577
aF0.056428853422403336
aF0.04994422197341919
aF0.0651409924030304
aF0.053110890090465546
aF0.05773615837097168
aF0.06179964169859886
aF0.06533824652433395
aF0.05198756977915764
aF0.06973155587911606
aF0.0629081204533577
aF0.09073982387781143
aF0.07049013674259186
aF0.06946093589067459
aF0.057294975966215134
aF0.05479566007852554
aF0.0634249597787857
aF0.053792405873537064
aF0.07303299754858017
aF0.05956749618053436
aF0.052252449095249176
aF0.061555735766887665
aF0.04866442456841469
aF0.06139296293258667
aF0.05659564957022667
aF0.07125648856163025
aF0.06606245040893555
aF0.046391189098358154
aF0.06631051003932953
aF0.06534705311059952
aF0.05855843797326088
aF0.06208079680800438
aF0.051469963043928146
aF0.09197217226028442
aF0.06785010546445847
aF0.05841038003563881
aF0.0683518797159195
aF0.055088359862565994
aF0.06408651173114777
aF0.05904901772737503
aF0.05924874544143677
aF0.0590679757297039
aF0.0472189299762249
aF0.056630346924066544
aF0.07048968970775604
aF0.0646388977766037
aF0.053424183279275894
aF0.06007186695933342
aF0.05371836572885513
aF0.06351681053638458
aF0.053060781210660934
aF0.056369584053754807
aF0.0677856057882309
aF0.05103069543838501
aF0.05106770619750023
aF0.05720498412847519
aF0.06509798765182495
aF0.07460325211286545
aF0.048915330320596695
aF0.07434146106243134
aF0.06102556735277176
aF0.07518541067838669
aF0.04643052816390991
aF0.07922127097845078
aF0.05516854673624039
aF0.06016373261809349
aF0.04416913166642189
aF0.06519889831542969
aF0.06264359503984451
aF0.05586526542901993
aF0.06519089639186859
aF0.06312447786331177
aF0.055630963295698166
aF0.057899098843336105
aF0.06652329117059708
aF0.056753240525722504
aF0.058397553861141205
aF0.05634022876620293
aF0.06804206967353821
aF0.05500676482915878
aF0.06816752254962921
aF0.056413352489471436
aF0.05429862067103386
aF0.05477114021778107
aF0.06133893132209778
aF0.05477049574255943
aF0.05484388396143913
aF0.04248077794909477
aF0.07202556729316711
aF0.0612427294254303
aF0.06781598925590515
aF0.06566563993692398
aF0.04997945949435234
aF0.05728629231452942
aF0.06697464734315872
aF0.045149341225624084
aF0.08040731400251389
aF0.06389136612415314
aF0.04231209307909012
aF0.05262773856520653
aF0.05383210629224777
aF0.05532953143119812
aF0.05853210389614105
aF0.08025222271680832
aF0.06649890542030334
aF0.06870728731155396
aF0.0652637705206871
aF0.06036430224776268
aF0.059647947549819946
aF0.05487025901675224
aF0.0672137513756752
aF0.07720834016799927
aF0.06286466121673584
aF0.06951523572206497
aF0.05101311206817627
aF0.05395584926009178
aF0.0632839947938919
aF0.060382191091775894
aF0.03866542875766754
aF0.059993676841259
aF0.08915051072835922
aF0.060540176928043365
aF0.053975917398929596
aF0.07191742211580276
aF0.06590352207422256
aF0.0616951510310173
aF0.04280044510960579
aF0.055319081991910934
aF0.05924319103360176
aF0.06307654827833176
aF0.046989403665065765
aF0.07302947342395782
aF0.054507527500391006
aF0.055140383541584015
aF0.04518682137131691
aF0.06030578166246414
aF0.06543317437171936
aF0.049396347254514694
aF0.07346401363611221
aF0.0596042200922966
aF0.060639698058366776
aF0.06048082187771797
aF0.053810004144907
aF0.06576275080442429
aF0.06684457510709763
aF0.06530163437128067
aF0.05203304439783096
aF0.05410031974315643
aF0.06480923295021057
aF0.062060851603746414
aF0.05292452126741409
aF0.0463460348546505
aF0.05673874169588089
aF0.06397739052772522
aF0.07172314077615738
aF0.06461510807275772
aF0.0558706596493721
aF0.03895182907581329
aF0.05735831707715988
aF0.07956716418266296
aF0.06283292174339294
aF0.05785893648862839
aF0.056426092982292175
aF0.05418764427304268
aF0.067805714905262
aF0.062361035495996475
aF0.04290059581398964
aF0.06388300657272339
aF0.060976628214120865
aF0.0779959037899971
aF0.06991647183895111
aF0.08589717745780945
aF0.06753932684659958
aF0.06155365705490112
aF0.054530926048755646
aF0.04961986467242241
aF0.06561166048049927
aF0.06675645709037781
aF0.07148957997560501
aF0.08593687415122986
aF0.05263394117355347
aF0.0574289932847023
aF0.06951257586479187
aF0.07199681550264359
aF0.04014973342418671
aF0.08099205046892166
aF0.04940363019704819
aF0.05988762527704239
aF0.06266636401414871
aF0.06398706883192062
aF0.06324931234121323
aF0.07157686352729797
aF0.06258664280176163
aF0.05539054423570633
aF0.06033112481236458
aF0.058584898710250854
aF0.05911777913570404
aF0.04984082281589508
aF0.07602519541978836
aF0.07868444919586182
aF0.0525766983628273
aF0.06138725206255913
aF0.06726249307394028
aF0.06880934536457062
aF0.06351819634437561
aF0.049755826592445374
aF0.06633874773979187
aF0.052184704691171646
aF0.047665029764175415
aF0.07218147069215775
aF0.053469426929950714
aF0.04937783628702164
aF0.04498794674873352
aF0.040306881070137024
aF0.039983127266168594
aF0.05428045243024826
aF0.0679812878370285
aF0.059281352907419205
aF0.06419753283262253
aF0.07712407410144806
aF0.056529127061367035
aF0.06228488311171532
aF0.06516019254922867
aF0.06184455007314682
aF0.052101776003837585
aF0.040970634669065475
aF0.05349960923194885
aF0.05535021424293518
aF0.0701218843460083
aF0.06026450917124748
aF0.06625650078058243
aF0.06527086347341537
aF0.05723142996430397
aF0.0650845393538475
aF0.06694202870130539
aF0.07209567725658417
aF0.06445590406656265
aF0.0735718235373497
aF0.061044178903102875
aF0.03573615476489067
aF0.06351751834154129
aF0.07269139587879181
aF0.05001789703965187
aF0.04241301119327545
aF0.047366321086883545
aF0.0852341577410698
aF0.05114023759961128
aF0.0711708515882492
aF0.06506664305925369
aF0.04655804857611656
aF0.0479150153696537
aF0.056517139077186584
aF0.07499594241380692
aF0.04942121356725693
aF0.04606856778264046
aF0.05587637424468994
aF0.0598725788295269
aF0.05763871595263481
aF0.07342611998319626
aF0.05746399611234665
aF0.06616747379302979
aF0.04502086341381073
aF0.06706389784812927
aF0.06743036955595016
aF0.05290856212377548
aF0.06664779037237167
aF0.05679157376289368
aF0.04511452093720436
aF0.05143243074417114
aF0.037398286163806915
aF0.07160711288452148
aF0.06340794265270233
aF0.0575777143239975
aF0.07592913508415222
aF0.05532122030854225
aF0.07450098544359207
aF0.07119033485651016
aF0.06010671705007553
aF0.05800355225801468
aF0.06816914677619934
aF0.06276661902666092
aF0.06009276211261749
aF0.06894390285015106
aF0.07176665961742401
aF0.0628911554813385
aF0.05490449070930481
aF0.050749972462654114
aF0.06253581494092941
aF0.04816441610455513
aF0.05606304109096527
aF0.055749114602804184
aF0.06125178188085556
aF0.05234874039888382
aF0.06451758742332458
aF0.06511786580085754
aF0.09807579219341278
aF0.07033035159111023
aF0.07200682908296585
aF0.05659734085202217
aF0.052967626601457596
aF0.062183380126953125
aF0.054193444550037384
aF0.0702381283044815
aF0.05851367488503456
aF0.051500752568244934
aF0.05998414382338524
aF0.047064993530511856
aF0.062556192278862
aF0.05354315787553787
aF0.07271397113800049
aF0.06271705776453018
aF0.04610306769609451
aF0.06701894849538803
aF0.061659425497055054
aF0.06440931558609009
aF0.061883945018053055
aF0.05126521736383438
aF0.08319723606109619
aF0.06799445301294327
aF0.05781327560544014
aF0.07217168807983398
aF0.05321346968412399
aF0.0626460611820221
aF0.05676073208451271
aF0.05467608943581581
aF0.05784657225012779
aF0.05269572511315346
aF0.055322907865047455
aF0.07003453373908997
aF0.06062394753098488
aF0.05807344615459442
aF0.05881519988179207
aF0.05650666356086731
aF0.06345676630735397
aF0.057205647230148315
aF0.06095132231712341
aF0.06114445999264717
aF0.05325552821159363
aF0.04838877171278
aF0.056618183851242065
aF0.0627363920211792
aF0.07183058559894562
aF0.04389744997024536
aF0.07016893476247787
aF0.058195214718580246
aF0.06870042532682419
aF0.04672835394740105
aF0.0765167847275734
aF0.05295189470052719
aF0.059748679399490356
aF0.04632609337568283
aF0.06536929309368134
aF0.06596808135509491
aF0.05392720177769661
aF0.06242967024445534
aF0.06464550644159317
aF0.060199763625860214
aF0.05897685885429382
aF0.06249503418803215
aF0.052881546318531036
aF0.05904710292816162
aF0.05559534206986427
aF0.07070638239383698
aF0.05401695519685745
aF0.06698606163263321
aF0.0536261610686779
aF0.057220201939344406
aF0.05485798791050911
aF0.06502897292375565
aF0.054124731570482254
aF0.054431717842817307
aF0.0401214174926281
aF0.07460691779851913
aF0.0662769004702568
aF0.06217769533395767
aF0.06340578943490982
aF0.05297018960118294
aF0.058400969952344894
aF0.06730213016271591
aF0.045971862971782684
aF0.07806213200092316
aF0.06477497518062592
aF0.04720911756157875
aF0.05257187411189079
aF0.059027981013059616
aF0.05644375458359718
aF0.05960720777511597
aF0.08195802569389343
aF0.06919250637292862
aF0.06518058478832245
aF0.06950034946203232
aF0.05896075442433357
aF0.061699263751506805
aF0.058020610362291336
aF0.06880170851945877
aF0.07749201357364655
aF0.06231186166405678
aF0.06949666887521744
aF0.052032195031642914
aF0.05350181460380554
aF0.06258523464202881
aF0.06361041963100433
aF0.03611326962709427
aF0.06428162753582001
aF0.07743430882692337
aF0.06083894148468971
aF0.050439585000276566
aF0.066131591796875
aF0.06725913286209106
aF0.05675116181373596
aF0.04302581772208214
aF0.054417550563812256
aF0.057827211916446686
aF0.060778070241212845
aF0.04794896021485329
aF0.07054945081472397
aF0.0568995475769043
aF0.05123583972454071
aF0.04706902429461479
aF0.05551162734627724
aF0.06613390147686005
aF0.04940706863999367
aF0.07572034746408463
aF0.05750611051917076
aF0.06374499946832657
aF0.05778731033205986
aF0.04939751327037811
aF0.06731641292572021
aF0.06917262077331543
aF0.06620512902736664
aF0.053952813148498535
aF0.054960161447525024
aF0.06540121883153915
aF0.060122426599264145
aF0.05263137444853783
aF0.04482131823897362
aF0.05229799449443817
aF0.06567908078432083
aF0.06865264475345612
aF0.06266046315431595
aF0.0614832267165184
aF0.04073716700077057
aF0.061274148523807526
aF0.08140678703784943
aF0.05882691964507103
aF0.05469115450978279
aF0.05495026707649231
aF0.0506012998521328
aF0.06788028031587601
aF0.056672774255275726
aF0.04525173082947731
aF0.0625152587890625
aF0.06470377743244171
aF0.07934416830539703
aF0.07039796561002731
aF0.09472070634365082
aF0.06943847239017487
aF0.05797956511378288
aF0.050499096512794495
aF0.049758948385715485
aF0.06375398486852646
aF0.06279167532920837
aF0.06872164458036423
aF0.08576393872499466
aF0.05413377285003662
aF0.05833236873149872
aF0.07045146822929382
aF0.07233841717243195
aF0.039463505148887634
aF0.08054567128419876
aF0.04946960508823395
aF0.056864939630031586
aF0.06385067850351334
aF0.061970457434654236
aF0.060400500893592834
aF0.06520456820726395
aF0.06686744838953018
aF0.0579293817281723
aF0.0604177862405777
aF0.06271414458751678
aF0.060631368309259415
aF0.04825025796890259
aF0.07452741265296936
aF0.07953723520040512
aF0.0541645810008049
aF0.06389542669057846
aF0.06171051785349846
aF0.0654522180557251
aF0.06592492759227753
aF0.05182209238409996
aF0.06784726679325104
aF0.05396066606044769
aF0.049739547073841095
aF0.06976182013750076
aF0.048841603100299835
aF0.04544629529118538
aF0.04621750861406326
aF0.04089588671922684
aF0.03928697854280472
aF0.054134540259838104
aF0.06407197564840317
aF0.06301227957010269
aF0.06285468488931656
aF0.07280470430850983
aF0.056088730692863464
aF0.06259555369615555
aF0.07371538877487183
aF0.060398269444704056
aF0.05651566758751869
aF0.04289153963327408
aF0.05251304432749748
aF0.05730828270316124
aF0.06633315235376358
aF0.059529054909944534
aF0.06548567116260529
aF0.06437622755765915
aF0.05859104543924332
aF0.05973977595567703
aF0.06157230585813522
aF0.07129117846488953
aF0.06676995754241943
aF0.07703109085559845
aF0.05988490581512451
aF0.03457891196012497
aF0.06252457946538925
aF0.07044460624456406
aF0.04761437326669693
aF0.039824169129133224
aF0.046305783092975616
aF0.08171988278627396
aF0.05201498419046402
aF0.06754540652036667
aF0.06623168289661407
aF0.046585507690906525
aF0.048999276012182236
aF0.052309468388557434
aF0.0795375183224678
aF0.046268757432699203
aF0.043485693633556366
aF0.05768322944641113
aF0.06332244724035263
aF0.05471425503492355
aF0.07798939198255539
aF0.060125645250082016
aF0.07000448554754257
aF0.050264302641153336
aF0.06761586666107178
aF0.07233049720525742
aF0.0553518645465374
aF0.06126708537340164
aF0.05750177055597305
aF0.04807623103260994
aF0.05073856934905052
aF0.0395851731300354
aF0.0700824186205864
aF0.06401991844177246
aF0.05982386693358421
aF0.07659414410591125
aF0.05528030917048454
aF0.07440117746591568
aF0.06732002645730972
aF0.05788341537117958
aF0.056225795298814774
aF0.06556184589862823
aF0.060814324766397476
aF0.06159959360957146
aF0.06562516838312149
aF0.07328817993402481
aF0.06406746804714203
aF0.05877245217561722
aF0.05020282045006752
aF0.0681946873664856
aF0.05145062506198883
aF0.0555441677570343
aF0.05890437960624695
aF0.062021221965551376
aF0.05360279232263565
aF0.06913023442029953
aF0.06858014315366745
aF0.09177035838365555
aF0.06875871866941452
aF0.0696205347776413
aF0.0590745285153389
aF0.054504554718732834
aF0.06730739027261734
aF0.05440269783139229
aF0.07118108868598938
aF0.05917314067482948
aF0.054119739681482315
aF0.059152666479349136
aF0.046452876180410385
aF0.06484713405370712
aF0.05391967296600342
aF0.07167163491249084
aF0.05938640609383583
aF0.050992682576179504
aF0.06731320172548294
aF0.06479201465845108
aF0.060342881828546524
aF0.059172503650188446
aF0.04671162739396095
aF0.08545459061861038
aF0.06457240879535675
aF0.05856328457593918
aF0.07015638798475266
aF0.0557355098426342
aF0.060779497027397156
aF0.05661313235759735
aF0.05326375365257263
aF0.056238941848278046
aF0.049209631979465485
aF0.05276549234986305
aF0.06731636077165604
aF0.06457839906215668
aF0.05317383259534836
aF0.05939168855547905
aF0.055287379771471024
aF0.06771606206893921
aF0.05459428206086159
aF0.053103454411029816
aF0.06217020004987717
aF0.04532908275723457
aF0.05201784893870354
aF0.05938272923231125
aF0.06734529882669449
aF0.07178831845521927
aF0.04695664346218109
aF0.07111698389053345
aF0.05623149871826172
aF0.07418075203895569
aF0.049650195986032486
aF0.07647734880447388
aF0.05073217302560806
aF0.059820506721735
aF0.043475814163684845
aF0.06874170899391174
aF0.0675034299492836
aF0.05837090685963631
aF0.07023119181394577
aF0.06263252347707748
aF0.05433238670229912
aF0.056433457881212234
aF0.06487621366977692
aF0.04951463267207146
aF0.05508409067988396
aF0.05419916287064552
aF0.0664583146572113
aF0.057026468217372894
aF0.06913986802101135
aF0.05668221414089203
aF0.054310645908117294
aF0.05605067312717438
aF0.060612693428993225
aF0.05364454537630081
aF0.05338982865214348
aF0.036976512521505356
aF0.07475242018699646
aF0.06375166028738022
aF0.06448595225811005
aF0.0627468153834343
aF0.0520663745701313
aF0.06087962165474892
aF0.06931578367948532
aF0.04612710699439049
aF0.07600080221891403
aF0.06565394997596741
aF0.045674946159124374
aF0.0520513653755188
aF0.05146203190088272
aF0.05259336531162262
aF0.058211084455251694
aF0.07712283730506897
aF0.06467530131340027
aF0.06753967702388763
aF0.0613035149872303
aF0.05737368017435074
aF0.060553696006536484
aF0.051714688539505005
aF0.06949622929096222
aF0.07670716941356659
aF0.06433001160621643
aF0.07225316762924194
aF0.054306305944919586
aF0.053205300122499466
aF0.0603254996240139
aF0.058158889412879944
aF0.03819112852215767
aF0.06491377204656601
aF0.08154136687517166
aF0.06095359846949577
aF0.05153321102261543
aF0.06919204443693161
aF0.0668540969491005
aF0.06169659271836281
aF0.044528860598802567
aF0.05652753263711929
aF0.060636743903160095
aF0.06075752526521683
aF0.049341414123773575
aF0.07412387430667877
aF0.05589606612920761
aF0.05435078963637352
aF0.04324465990066528
aF0.0601656511425972
aF0.06485260277986526
aF0.05080225691199303
aF0.0726827085018158
aF0.05668492987751961
aF0.06581607460975647
aF0.05939917266368866
aF0.05348794162273407
aF0.06973932683467865
aF0.06803887337446213
aF0.06745114177465439
aF0.054535772651433945
aF0.053254153579473495
aF0.06494443863630295
aF0.06137971580028534
aF0.049774520099163055
aF0.04801565036177635
aF0.05634310841560364
aF0.06245940923690796
aF0.06893870234489441
aF0.06430234760046005
aF0.06046441197395325
aF0.0377536304295063
aF0.05822305753827095
aF0.07914799451828003
aF0.06094818934798241
aF0.061692118644714355
aF0.05636870861053467
aF0.051230061799287796
aF0.0719899833202362
aF0.057736072689294815
aF0.04524945467710495
aF0.06890909373760223
aF0.06476698070764542
aF0.07569705694913864
aF0.07832570374011993
aF0.08693830668926239
aF0.0696869045495987
aF0.060094624757766724
aF0.05270876735448837
aF0.05470821261405945
aF0.06668567657470703
aF0.06444203108549118
aF0.0721881091594696
aF0.08615090698003769
aF0.050368744879961014
aF0.05752364918589592
aF0.07369706779718399
aF0.07418119162321091
aF0.04134713113307953
aF0.08103196322917938
aF0.04858172684907913
aF0.05897015333175659
aF0.06642937660217285
aF0.06387809664011002
aF0.06286727637052536
aF0.06448602676391602
aF0.06743508577346802
aF0.0584440603852272
aF0.058583129197359085
aF0.06461887806653976
aF0.06336008012294769
aF0.0480380542576313
aF0.07403712719678879
aF0.07607554644346237
aF0.05347460135817528
aF0.05969732627272606
aF0.06600232422351837
aF0.062127623707056046
aF0.06703908741474152
aF0.04969025403261185
aF0.06700242310762405
aF0.05507947504520416
aF0.04681025817990303
aF0.07035394757986069
aF0.04941532015800476
aF0.047665294259786606
aF0.04620960354804993
aF0.04006407409906387
aF0.043515656143426895
aF0.052573565393686295
aF0.06535772234201431
aF0.06257768720388412
aF0.06224866583943367
aF0.07395078241825104
aF0.05574764683842659
aF0.06565754115581512
aF0.06681925058364868
aF0.06317777186632156
aF0.054849836975336075
aF0.04134601354598999
aF0.053431518375873566
aF0.05762150138616562
aF0.07037036120891571
aF0.059131499379873276
aF0.06710317730903625
aF0.06542988866567612
aF0.060691528022289276
aF0.06741102039813995
aF0.06673546135425568
aF0.07128269970417023
aF0.06493649631738663
aF0.0758589655160904
aF0.06179923564195633
aF0.038121309131383896
aF0.0626010075211525
aF0.07269210368394852
aF0.04841410368680954
aF0.03771359845995903
aF0.04296008497476578
aF0.08367180824279785
aF0.052928365767002106
aF0.06380752474069595
aF0.0640638917684555
aF0.046387746930122375
aF0.0498528890311718
aF0.053771551698446274
aF0.07704129815101624
aF0.05217084661126137
aF0.04688160493969917
aF0.05536617338657379
aF0.06076155602931976
aF0.055923305451869965
aF0.0749613493680954
aF0.061743032187223434
aF0.06889316439628601
aF0.04355265945196152
aF0.06677171587944031
aF0.0688055008649826
aF0.05159558728337288
aF0.06070102006196976
aF0.058416757732629776
aF0.04779311642050743
aF0.056859228760004044
aF0.036598850041627884
aF0.07234445959329605
aF0.06507367640733719
aF0.059939347207546234
aF0.07685209065675735
aF0.05503319576382637
aF0.07543730735778809
aF0.06907465308904648
aF0.06108902022242546
aF0.05369683727622032
aF0.06507545709609985
aF0.06176464259624481
aF0.06112227961421013
aF0.06721602380275726
aF0.07015059143304825
aF0.06321044266223907
aF0.054089032113552094
aF0.05288144573569298
aF0.06900696456432343
aF0.04879000410437584
aF0.057479072362184525
aF0.061551425606012344
aF0.06491483002901077
aF0.05089198797941208
aa(lp2
a.