(lp0
F0.6980975866317749
aF0.7693333625793457
aF0.6720853447914124
aF0.6362053155899048
aF0.6391187906265259
aF0.6188167929649353
aF0.6298378705978394
aF0.6022786498069763
aF0.5786340832710266
aF0.5808780789375305
aF0.5533391833305359
aF0.547447681427002
aF0.5530794858932495
aF0.5140352249145508
aF0.49479836225509644
aF0.5029770135879517
aF0.46749621629714966
aF0.4319138526916504
aF0.44000008702278137
aF0.3953232765197754
aF0.37409064173698425
aF0.38000836968421936
aF0.3230117857456207
aF0.3314574956893921
aF0.2912861704826355
aF0.2667279541492462
aF0.24634692072868347
aF0.2551756501197815
aF0.21015198528766632
aF0.21215423941612244
aF0.20111460983753204
aF0.17140130698680878
aF0.19294041395187378
aF0.17909017205238342
aF0.15423032641410828
aF0.1573994904756546
aF0.15432152152061462
aF0.14768068492412567
aF0.17066070437431335
aF0.12324394285678864
aF0.12397190183401108
aF0.1279226541519165
aF0.16213278472423553
aF0.12596526741981506
aF0.12844550609588623
aF0.11442688852548599
aF0.11848714202642441
aF0.1368168294429779
aF0.12230744957923889
aF0.12609921395778656
aF0.11739001423120499
aF0.1403554379940033
aF0.11248739063739777
aF0.14402234554290771
aF0.12198852002620697
aF0.11641359329223633
aF0.09215685725212097
aF0.10798105597496033
aF0.11805545538663864
aF0.12126853317022324
aF0.12053268402814865
aF0.09135734289884567
aF0.11211613565683365
aF0.11863769590854645
aF0.09490663558244705
aF0.09452617168426514
aF0.08717111498117447
aF0.10166880488395691
aF0.1157267838716507
aF0.10499157011508942
aF0.11694097518920898
aF0.10127093642950058
aF0.09104698896408081
aF0.09293317049741745
aF0.11539517343044281
aF0.09609667956829071
aF0.10791084915399551
aF0.07589460164308548
aF0.09726773202419281
aF0.08242201805114746
aF0.09612563252449036
aF0.10346928238868713
aF0.08315565437078476
aF0.10725315660238266
aF0.09104271978139877
aF0.08858606219291687
aF0.08716052025556564
aF0.10622002184391022
aF0.11089811474084854
aF0.10577170550823212
aF0.077021025121212
aF0.08908084779977798
aF0.09281224757432938
aF0.08316196501255035
aF0.1106625646352768
aF0.08863255381584167
aF0.07991677522659302
aF0.07845226675271988
aF0.08660972863435745
aF0.11018973588943481
aF0.06673131883144379
aF0.08132657408714294
aF0.05761886015534401
aF0.08384448289871216
aF0.08238649368286133
aF0.10285572707653046
aF0.08521365374326706
aF0.09401527792215347
aF0.07756751775741577
aF0.08765465021133423
aF0.10104281455278397
aF0.08217211812734604
aF0.10406377911567688
aF0.10371451824903488
aF0.06539308279752731
aF0.0922970250248909
aF0.08995416015386581
aF0.09096851199865341
aF0.07718241214752197
aF0.07161558419466019
aF0.07517161965370178
aF0.07606923580169678
aF0.07914061844348907
aF0.08622166514396667
aF0.0917305052280426
aF0.07031343132257462
aF0.08141966909170151
aF0.09052843600511551
aF0.07572845369577408
aF0.09498649090528488
aF0.08637022227048874
aF0.11424517631530762
aF0.09606507420539856
aF0.08343784511089325
aF0.09006386995315552
aF0.07492822408676147
aF0.09664912521839142
aF0.08948610723018646
aF0.08054568618535995
aF0.08179859071969986
aF0.06989435106515884
aF0.07845152914524078
aF0.06965029984712601
aF0.07051768153905869
aF0.08350589126348495
aF0.0777270644903183
aF0.0845000296831131
aF0.07621745765209198
aF0.10093151777982712
aF0.06267352402210236
aF0.07769791036844254
aF0.11152543127536774
aF0.08741364628076553
aF0.08005361258983612
aF0.10977894812822342
aF0.06955209374427795
aF0.06965142488479614
aF0.07042519003152847
aF0.08930105715990067
aF0.08658536523580551
aF0.07309628278017044
aF0.09802506119012833
aF0.09536067396402359
aF0.06772609800100327
aF0.0717969760298729
aF0.09178661555051804
aF0.08625158667564392
aF0.07159122824668884
aF0.07458415627479553
aF0.08515192568302155
aF0.07244241237640381
aF0.08995451033115387
aF0.06950237601995468
aF0.08279803395271301
aF0.07158122211694717
aF0.07686129212379456
aF0.05597582831978798
aF0.10293276607990265
aF0.062234874814748764
aF0.07095129787921906
aF0.07717479765415192
aF0.07700421661138535
aF0.07535901665687561
aF0.05986546725034714
aF0.0845814123749733
aF0.07100564986467361
aF0.07624369114637375
aF0.06974612921476364
aF0.08072762936353683
aF0.08179930597543716
aF0.07317321747541428
aF0.07088810205459595
aF0.05986318737268448
aF0.07779751718044281
aF0.10400521755218506
aF0.0853191688656807
aF0.07408194243907928
aF0.09263073652982712
aF0.07876142114400864
aF0.07785249501466751
aF0.06991256028413773
aF0.08289310336112976
aF0.08128352463245392
aF0.06684345006942749
aF0.07810711860656738
aF0.0671224594116211
aF0.0732603669166565
aF0.07639710605144501
aF0.07413457334041595
aF0.08694630116224289
aF0.07946199178695679
aF0.0838526263833046
aF0.0809403583407402
aF0.0675291046500206
aF0.08527437597513199
aF0.06678389757871628
aF0.07149671018123627
aF0.08658625185489655
aF0.06837015599012375
aF0.05865730717778206
aF0.0780603289604187
aF0.07863859087228775
aF0.0708974301815033
aF0.08695713430643082
aF0.08255604654550552
aF0.07674239575862885
aF0.08233775198459625
aF0.06899013370275497
aF0.09319574385881424
aF0.07738425582647324
aF0.05872918292880058
aF0.07051485776901245
aF0.08814888447523117
aF0.07349897921085358
aF0.10335481911897659
aF0.07643276453018188
aF0.07822956889867783
aF0.06485489755868912
aF0.059170521795749664
aF0.06267724186182022
aF0.05844328552484512
aF0.07175298035144806
aF0.08225142955780029
aF0.0669860690832138
aF0.06292727589607239
aF0.08166803419589996
aF0.0679434984922409
aF0.09798068553209305
aF0.0745362713932991
aF0.049426376819610596
aF0.070254847407341
aF0.07610863447189331
aF0.07172670215368271
aF0.13161364197731018
aF0.08839987218379974
aF0.07621471583843231
aF0.0860653817653656
aF0.06152261048555374
aF0.07188154011964798
aF0.05734800547361374
aF0.08284690976142883
aF0.07463230192661285
aF0.0669863373041153
aF0.06903908401727676
aF0.08018292486667633
aF0.07632295787334442
aF0.08411533385515213
aF0.08370218425989151
aF0.07742798328399658
aF0.05747165530920029
aF0.07241334766149521
aF0.07070369273424149
aF0.08230985701084137
aF0.08241159468889236
aF0.06365635991096497
aF0.06603814661502838
aF0.07664009928703308
aF0.06277281790971756
aF0.10270324349403381
aF0.07722267508506775
aF0.054045796394348145
aF0.0363122820854187
aF0.06295739859342575
aF0.07144283503293991
aF0.058418016880750656
aF0.07548809051513672
aF0.07847796380519867
aF0.06002984941005707
aF0.07261748611927032
aF0.07480927556753159
aF0.06399057060480118
aF0.08667167276144028
aF0.08240639418363571
aF0.07632435113191605
aF0.0781523585319519
aF0.061114389449357986
aF0.06981619447469711
aF0.0558687299489975
aF0.06246427446603775
aF0.08905929327011108
aF0.07114893198013306
aF0.06195934861898422
aF0.08155635744333267
aF0.08675775676965714
aF0.06770552694797516
aF0.0745009109377861
aF0.06745828688144684
aF0.06419537961483002
aF0.0725763663649559
aF0.07510125637054443
aF0.0982334241271019
aF0.08511608093976974
aF0.049067385494709015
aF0.07359705120325089
aF0.04756302759051323
aF0.05769777297973633
aF0.09155527502298355
aF0.09354155510663986
aF0.06916475296020508
aF0.07617036998271942
aF0.09492433816194534
aF0.07812940329313278
aF0.07617749273777008
aF0.046298351138830185
aF0.05223782733082771
aF0.06591307371854782
aF0.09711473435163498
aF0.0711333155632019
aF0.09975756704807281
aF0.05860457941889763
aF0.08966526389122009
aF0.10745690017938614
aF0.08567269146442413
aF0.07477578520774841
aF0.07015383988618851
aF0.09243394434452057
aF0.07213634252548218
aF0.08990457653999329
aF0.07347460836172104
aF0.07171427458524704
aF0.05185462161898613
aF0.05150378867983818
aF0.08401086926460266
aF0.06882916390895844
aF0.07789023965597153
aF0.06679073721170425
aF0.06871791183948517
aF0.09280086308717728
aF0.06582210212945938
aF0.06607092916965485
aF0.05933501943945885
aF0.06121513992547989
aF0.09144829213619232
aF0.06813066452741623
aF0.09141040593385696
aF0.0772603377699852
aF0.0731501430273056
aF0.07397142797708511
aF0.07876166701316833
aF0.07163824886083603
aF0.0773397833108902
aF0.05116596445441246
aF0.07223717868328094
aF0.06322848051786423
aF0.07076388597488403
aF0.056314315646886826
aF0.061529211699962616
aF0.08142755925655365
aF0.07552027702331543
aF0.0663178563117981
aF0.08099672943353653
aF0.059008557349443436
aF0.08602101355791092
aF0.09098513424396515
aF0.05602756515145302
aF0.07535684108734131
aF0.06514191627502441
aF0.08168689161539078
aF0.08236059546470642
aF0.07213032990694046
aF0.06734444200992584
aF0.061095789074897766
aF0.0710904523730278
aF0.076742023229599
aF0.05584380030632019
aF0.06170589104294777
aF0.055098727345466614
aF0.07826854288578033
aF0.06355095654726028
aF0.09020949900150299
aF0.06016601249575615
aF0.06692949682474136
aF0.07083192467689514
aF0.07286101579666138
aF0.07466799020767212
aF0.07689323276281357
aF0.08087179809808731
aF0.07778201997280121
aF0.05857161059975624
aF0.0689001977443695
aF0.0843132734298706
aF0.07834392786026001
aF0.07559449970722198
aF0.06374365091323853
aF0.06091559678316116
aF0.05552661046385765
aF0.07950840890407562
aF0.0764341652393341
aF0.0823550671339035
aF0.06507841497659683
aF0.06979921460151672
aF0.08079935610294342
aF0.05655812472105026
aF0.07230252772569656
aF0.06210002303123474
aF0.09460360556840897
aF0.08294094353914261
aF0.06815806031227112
aF0.0797996073961258
aF0.06520038843154907
aF0.08018296211957932
aF0.07630880177021027
aF0.05790063366293907
aF0.07105349749326706
aF0.056597039103507996
aF0.07278177887201309
aF0.06542830914258957
aF0.06898092478513718
aF0.07411471009254456
aF0.06694672256708145
aF0.08691856265068054
aF0.06593987345695496
aF0.082149937748909
aF0.06275239586830139
aF0.0659441277384758
aF0.09348610788583755
aF0.07818777114152908
aF0.07102761417627335
aF0.09794928133487701
aF0.057109393179416656
aF0.07241704314947128
aF0.06318702548742294
aF0.07770311087369919
aF0.07420177757740021
aF0.06438840180635452
aF0.08329354226589203
aF0.08293527364730835
aF0.0626445934176445
aF0.06547589600086212
aF0.07589840143918991
aF0.08376841247081757
aF0.058249086141586304
aF0.06565652787685394
aF0.06687182188034058
aF0.0634038895368576
aF0.0807935819029808
aF0.0736791118979454
aF0.07714442163705826
aF0.0699462816119194
aF0.07146494835615158
aF0.050598639994859695
aF0.07961495220661163
aF0.05359318107366562
aF0.06582534313201904
aF0.06708183139562607
aF0.07991717755794525
aF0.07120093703269958
aF0.052187032997608185
aF0.08088315278291702
aF0.06717947125434875
aF0.0611245334148407
aF0.07141564041376114
aF0.06978907436132431
aF0.07574404031038284
aF0.0691254660487175
aF0.06437453627586365
aF0.0578191764652729
aF0.06634371727705002
aF0.08828835934400558
aF0.07830839604139328
aF0.07042814791202545
aF0.08421124517917633
aF0.07798810303211212
aF0.07108145207166672
aF0.07276266068220139
aF0.07415321469306946
aF0.0703151673078537
aF0.06910622864961624
aF0.07097437232732773
aF0.056031905114650726
aF0.06491177529096603
aF0.07050362974405289
aF0.06527876108884811
aF0.07699701935052872
aF0.07911884039640427
aF0.06945831328630447
aF0.07567432522773743
aF0.06396748870611191
aF0.07218196243047714
aF0.06333278119564056
aF0.06159011274576187
aF0.07816538959741592
aF0.05994062498211861
aF0.05824891850352287
aF0.06793645769357681
aF0.06868455559015274
aF0.07074590772390366
aF0.0823419839143753
aF0.06673108786344528
aF0.0742434710264206
aF0.07146971672773361
aF0.06944642961025238
aF0.07186847925186157
aF0.06665528565645218
aF0.05466406047344208
aF0.06625369191169739
aF0.07551317662000656
aF0.06715379655361176
aF0.08789367973804474
aF0.07193218916654587
aF0.06442774832248688
aF0.060487546026706696
aF0.061326075345277786
aF0.06357015669345856
aF0.053216416388750076
aF0.06433156132698059
aF0.07641515880823135
aF0.05063159763813019
aF0.054949793964624405
aF0.07874011993408203
aF0.07041747868061066
aF0.08385754376649857
aF0.07369240373373032
aF0.04861930012702942
aF0.06500779837369919
aF0.07849085330963135
aF0.06773808598518372
aF0.12124892324209213
aF0.08357007056474686
aF0.06431308388710022
aF0.08315420150756836
aF0.060029901564121246
aF0.06436258554458618
aF0.05403802543878555
aF0.0686388686299324
aF0.07642292976379395
aF0.06564242392778397
aF0.0720524936914444
aF0.08235161006450653
aF0.06990815699100494
aF0.06889063864946365
aF0.08456436544656754
aF0.07247022539377213
aF0.061525989323854446
aF0.06383966654539108
aF0.0642218142747879
aF0.07853445410728455
aF0.07215739786624908
aF0.05445025488734245
aF0.06897971034049988
aF0.0632849857211113
aF0.06626204401254654
aF0.0837029367685318
aF0.07357818633317947
aF0.048876162618398666
aF0.04028066247701645
aF0.06504850089550018
aF0.06676942855119705
aF0.06281252205371857
aF0.07594427466392517
aF0.07080773264169693
aF0.05529460683465004
aF0.07503706216812134
aF0.07244477421045303
aF0.06331370025873184
aF0.07866296172142029
aF0.07003238797187805
aF0.07192377746105194
aF0.07773537188768387
aF0.05900902301073074
aF0.06177153065800667
aF0.049947403371334076
aF0.05487433820962906
aF0.07726464420557022
aF0.06870750337839127
aF0.054513029754161835
aF0.07359295338392258
aF0.07938826829195023
aF0.07044575363397598
aF0.06361275911331177
aF0.07082660496234894
aF0.05932475998997688
aF0.0682278648018837
aF0.0636695846915245
aF0.09323644638061523
aF0.08109160512685776
aF0.04731539636850357
aF0.0694790780544281
aF0.04479854926466942
aF0.05815102905035019
aF0.08028578013181686
aF0.09390191733837128
aF0.06379024684429169
aF0.07811185717582703
aF0.09080975502729416
aF0.0746961161494255
aF0.07054564356803894
aF0.04595306143164635
aF0.05080578476190567
aF0.061194662004709244
aF0.09002012759447098
aF0.06336230784654617
aF0.09923825412988663
aF0.052876926958560944
aF0.07819604873657227
aF0.0953068733215332
aF0.08378178626298904
aF0.0700482577085495
aF0.063719242811203
aF0.0862487331032753
aF0.06746097654104233
aF0.08368173241615295
aF0.08007878065109253
aF0.05683775991201401
aF0.05083449184894562
aF0.047858867794275284
aF0.07680262625217438
aF0.06333805620670319
aF0.07422085106372833
aF0.06256137043237686
aF0.07675670087337494
aF0.08409453928470612
aF0.06257902085781097
aF0.05980079248547554
aF0.05711234360933304
aF0.06689305603504181
aF0.07836517691612244
aF0.06244898959994316
aF0.0786435455083847
aF0.07378357648849487
aF0.0654192566871643
aF0.06920631229877472
aF0.07044928520917892
aF0.07610490173101425
aF0.07270364463329315
aF0.05127982795238495
aF0.06710652261972427
aF0.05689030885696411
aF0.06006433069705963
aF0.06369882822036743
aF0.06287908554077148
aF0.0857134759426117
aF0.07455100119113922
aF0.05679287761449814
aF0.07795267552137375
aF0.06285140663385391
aF0.07889611274003983
aF0.08514220267534256
aF0.059320274740457535
aF0.07433014363050461
aF0.06644989550113678
aF0.06770750135183334
aF0.07860268652439117
aF0.0672009214758873
aF0.07088930904865265
aF0.05432599410414696
aF0.07238566130399704
aF0.06784921139478683
aF0.05513141676783562
aF0.06508579850196838
aF0.05628753453493118
aF0.07583533972501755
aF0.0632552057504654
aF0.08785059303045273
aF0.05837545543909073
aF0.07524211704730988
aF0.07231608033180237
aF0.06662793457508087
aF0.0783381387591362
aF0.071199931204319
aF0.0780707597732544
aF0.0764009952545166
aF0.05478772521018982
aF0.06688591837882996
aF0.07899653911590576
aF0.07410578429698944
aF0.06806120276451111
aF0.06268256902694702
aF0.05964873731136322
aF0.056723810732364655
aF0.07060068100690842
aF0.07261388748884201
aF0.0787719339132309
aF0.061131201684474945
aF0.062214527279138565
aF0.06949871778488159
aF0.05681006982922554
aF0.07337002456188202
aF0.06779228150844574
aF0.09592176973819733
aF0.08333613723516464
aF0.06610099226236343
aF0.07600134611129761
aF0.05250485613942146
aF0.08230546116828918
aF0.07895191758871078
aF0.055052414536476135
aF0.07287071645259857
aF0.05334837734699249
aF0.06477833539247513
aF0.06465193629264832
aF0.05390467867255211
aF0.0771532952785492
aF0.0645512118935585
aF0.07980313152074814
aF0.0626540556550026
aF0.08733858913183212
aF0.05699803680181503
aF0.06934697926044464
aF0.09465203434228897
aF0.07522258907556534
aF0.06552769243717194
aF0.09129882603883743
aF0.057687338441610336
aF0.06604869663715363
aF0.06287811696529388
aF0.07557915896177292
aF0.07138018310070038
aF0.061060450971126556
aF0.07506537437438965
aF0.08709461987018585
aF0.05953860655426979
aF0.061641331762075424
aF0.0694565400481224
aF0.0884847640991211
aF0.06022696942090988
aF0.06468673050403595
aF0.061587993055582047
aF0.06965399533510208
aF0.07952728122472763
aF0.06620067358016968
aF0.08423155546188354
aF0.06629510223865509
aF0.06734445691108704
aF0.05009336769580841
aF0.07704108953475952
aF0.0505412295460701
aF0.06428399682044983
aF0.06897806376218796
aF0.07700039446353912
aF0.06550232321023941
aF0.04792150482535362
aF0.07492270320653915
aF0.06144518405199051
aF0.06284285336732864
aF0.06452527642250061
aF0.06735242903232574
aF0.06613831967115402
aF0.06451303511857986
aF0.05961411073803902
aF0.06189276650547981
aF0.06500422209501266
aF0.09153673052787781
aF0.08087371289730072
aF0.06415452063083649
aF0.07684288918972015
aF0.07365889847278595
aF0.06587180495262146
aF0.06605874747037888
aF0.0757722407579422
aF0.06776478886604309
aF0.06737849116325378
aF0.06296718120574951
aF0.05424140393733978
aF0.06659188121557236
aF0.0696919709444046
aF0.06954893469810486
aF0.08381164073944092
aF0.07482477277517319
aF0.07560520619153976
aF0.06745342910289764
aF0.0621795691549778
aF0.0727815181016922
aF0.06651122868061066
aF0.060901183634996414
aF0.07851394265890121
aF0.06052453815937042
aF0.05472113937139511
aF0.061648204922676086
aF0.07289745658636093
aF0.06778886914253235
aF0.0832798033952713
aF0.056429747492074966
aF0.07051744312047958
aF0.07762356102466583
aF0.06467194110155106
aF0.07442761957645416
aF0.06961645931005478
aF0.0541880764067173
aF0.060668058693408966
aF0.07435756176710129
aF0.0675499364733696
aF0.08705222606658936
aF0.07130182534456253
aF0.06730285286903381
aF0.0601872019469738
aF0.05827338248491287
aF0.06001780182123184
aF0.04884621500968933
aF0.058529604226350784
aF0.07581543922424316
aF0.05686797574162483
aF0.05665602535009384
aF0.07496578991413116
aF0.06733670830726624
aF0.0830436423420906
aF0.0699165016412735
aF0.04792473465204239
aF0.06204887852072716
aF0.06989116966724396
aF0.06533361226320267
aF0.1201786994934082
aF0.09028293937444687
aF0.06292609870433807
aF0.08157065510749817
aF0.060218535363674164
aF0.05986184626817703
aF0.05106493830680847
aF0.07125172019004822
aF0.0720568597316742
aF0.05755164101719856
aF0.06735964864492416
aF0.08097272366285324
aF0.0700579509139061
aF0.06921511888504028
aF0.08670537918806076
aF0.07251931726932526
aF0.057672638446092606
aF0.06760700047016144
aF0.0625157430768013
aF0.07497898489236832
aF0.0670194998383522
aF0.0503237321972847
aF0.06211262568831444
aF0.0650511234998703
aF0.06083215773105621
aF0.07898184657096863
aF0.0688328966498375
aF0.047846995294094086
aF0.03667587786912918
aF0.06247831508517265
aF0.06723500788211823
aF0.0574503131210804
aF0.07589622586965561
aF0.07561898231506348
aF0.05696260184049606
aF0.07530911266803741
aF0.07379601895809174
aF0.061675406992435455
aF0.07621029764413834
aF0.06918226182460785
aF0.0692339837551117
aF0.075137659907341
aF0.061477527022361755
aF0.05746493861079216
aF0.04624748229980469
aF0.05729192495346069
aF0.07614687085151672
aF0.06829360872507095
aF0.05491844192147255
aF0.07040269672870636
aF0.08339354395866394
aF0.062358271330595016
aF0.06809142231941223
aF0.06779294461011887
aF0.06378316879272461
aF0.0737636536359787
aF0.06355183571577072
aF0.08926377445459366
aF0.08134497702121735
aF0.049493130296468735
aF0.07173396646976471
aF0.04330406337976456
aF0.055626798421144485
aF0.07856249064207077
aF0.08636142313480377
aF0.06655864417552948
aF0.07464597374200821
aF0.08893703669309616
aF0.06902608275413513
aF0.06715861707925797
aF0.04551488161087036
aF0.05167702957987785
aF0.0631108433008194
aF0.08311446756124496
aF0.06490154564380646
aF0.08791571855545044
aF0.05682939291000366
aF0.0827954113483429
aF0.09054045379161835
aF0.07567200064659119
aF0.07061031460762024
aF0.0610131174325943
aF0.08593019098043442
aF0.0715077817440033
aF0.07898801565170288
aF0.07475865632295609
aF0.05963566154241562
aF0.04601697996258736
aF0.05414341017603874
aF0.07754907011985779
aF0.06087002158164978
aF0.07714497298002243
aF0.05693158879876137
aF0.0722678154706955
aF0.08477157354354858
aF0.06014702096581459
aF0.06176704913377762
aF0.05321352928876877
aF0.06947885453701019
aF0.07418562471866608
aF0.058385755866765976
aF0.08107219636440277
aF0.0741719901561737
aF0.05831350386142731
aF0.06984451413154602
aF0.06876267492771149
aF0.0686955600976944
aF0.07347173988819122
aF0.0536433644592762
aF0.06676974892616272
aF0.0598067082464695
aF0.06392970681190491
aF0.06529625505208969
aF0.0569094642996788
aF0.07926110178232193
aF0.06699106842279434
aF0.059638671576976776
aF0.07799132913351059
aF0.05694112926721573
aF0.07618539780378342
aF0.08833452314138412
aF0.06024010106921196
aF0.07297328114509583
aF0.06614962220191956
aF0.06596089899539948
aF0.07561727613210678
aF0.06403273344039917
aF0.0715872123837471
aF0.0532601960003376
aF0.06917766481637955
aF0.0724896639585495
aF0.05762789770960808
aF0.06126627326011658
aF0.055253151804208755
aF0.07009257376194
aF0.06046845391392708
aF0.08199705928564072
aF0.05694810673594475
aF0.06846108287572861
aF0.07394013553857803
aF0.06605509668588638
aF0.07257113605737686
aF0.0712343156337738
aF0.07643549144268036
aF0.07569936662912369
aF0.057509418576955795
aF0.06629657000303268
aF0.07567888498306274
aF0.07810669392347336
aF0.06652682274580002
aF0.06050270050764084
aF0.06023942306637764
aF0.05825040861964226
aF0.07563730329275131
aF0.06997175514698029
aF0.07572884112596512
aF0.06014363095164299
aF0.06973420828580856
aF0.07722850143909454
aF0.055022262036800385
aF0.07070378959178925
aF0.05912007391452789
aF0.09826258569955826
aF0.07978825271129608
aF0.06280523538589478
aF0.07403688132762909
aF0.05814889073371887
aF0.07907447218894958
aF0.07880531996488571
aF0.054502934217453
aF0.07185184210538864
aF0.0556446835398674
aF0.0638749971985817
aF0.06542627513408661
aF0.05679124966263771
aF0.06779546290636063
aF0.06866574287414551
aF0.08346213400363922
aF0.06515201181173325
aF0.08189325034618378
aF0.0582478791475296
aF0.05845838412642479
aF0.09231952577829361
aF0.07900393754243851
aF0.06773614138364792
aF0.0878758579492569
aF0.056653719395399094
aF0.06323529779911041
aF0.05757768079638481
aF0.06609781086444855
aF0.07448115199804306
aF0.06629576534032822
aF0.07780712097883224
aF0.07775804400444031
aF0.058774176985025406
aF0.0573992021381855
aF0.07230019569396973
aF0.07710254192352295
aF0.060389451682567596
aF0.06861446052789688
aF0.062232520431280136
aF0.06763724237680435
aF0.06966447085142136
aF0.05994464457035065
aF0.07991869747638702
aF0.0690653920173645
aF0.0665096715092659
aF0.04934291914105415
aF0.07157036662101746
aF0.05007587745785713
aF0.058392707258462906
aF0.07005196809768677
aF0.07487025111913681
aF0.06424159556627274
aF0.04323337972164154
aF0.07452530413866043
aF0.06088089197874069
aF0.058855459094047546
aF0.06962838023900986
aF0.06594748049974442
aF0.0699802041053772
aF0.06608503311872482
aF0.061360009014606476
aF0.06054331734776497
aF0.06295637041330338
aF0.08943893015384674
aF0.07899555563926697
aF0.06826940178871155
aF0.08101537823677063
aF0.0745849460363388
aF0.063602976500988
aF0.06618621945381165
aF0.07784634828567505
aF0.06473178416490555
aF0.06441253423690796
aF0.0645144134759903
aF0.05267201364040375
aF0.0651841089129448
aF0.06504259258508682
aF0.06608706712722778
aF0.07861211895942688
aF0.07841676473617554
aF0.07650069147348404
aF0.06362918764352798
aF0.06254158169031143
aF0.07630667090415955
aF0.06323206424713135
aF0.05895736441016197
aF0.07748494297266006
aF0.06524091213941574
aF0.055103883147239685
aF0.05980319529771805
aF0.06536728143692017
aF0.0741107165813446
aF0.07726577669382095
aF0.05996403843164444
aF0.07142437249422073
aF0.07702743262052536
aF0.06449846923351288
aF0.06596945226192474
aF0.06694183498620987
aF0.05124931037425995
aF0.06695239245891571
aF0.0767400786280632
aF0.06595887988805771
aF0.08186087757349014
aF0.06884381920099258
aF0.07082182914018631
aF0.05966489762067795
aF0.06027777120471001
aF0.05947801470756531
aF0.04935266450047493
aF0.06267949193716049
aF0.07561490684747696
aF0.05182879418134689
aF0.05474597588181496
aF0.06907518208026886
aF0.0629766657948494
aF0.08542872220277786
aF0.07049038261175156
aF0.046759650111198425
aF0.06317596882581711
aF0.07127551734447479
aF0.06151929870247841
aF0.11922823637723923
aF0.08644835650920868
aF0.06483111530542374
aF0.08010505884885788
aF0.06222528964281082
aF0.060460567474365234
aF0.050885289907455444
aF0.07148616015911102
aF0.07077974081039429
aF0.06338123977184296
aF0.06382102519273758
aF0.07807660102844238
aF0.07169445604085922
aF0.07151074707508087
aF0.08625590056180954
aF0.07612752914428711
aF0.059982191771268845
aF0.06139621138572693
aF0.06362273544073105
aF0.07327289879322052
aF0.06777338683605194
aF0.05106016620993614
aF0.06390296667814255
aF0.05941847339272499
aF0.06068722531199455
aF0.08083267509937286
aF0.06942076236009598
aF0.051119912415742874
aF0.040536995977163315
aF0.0638447180390358
aF0.06677789241075516
aF0.05705709755420685
aF0.06987164169549942
aF0.06668243557214737
aF0.058124274015426636
aF0.07184145599603653
aF0.07317717373371124
aF0.05915181711316109
aF0.07390765845775604
aF0.06312992423772812
aF0.06482668966054916
aF0.07100582122802734
aF0.06281297653913498
aF0.056516196578741074
aF0.0484393909573555
aF0.05552248656749725
aF0.0791483074426651
aF0.06293805688619614
aF0.05308513343334198
aF0.07328968495130539
aF0.08288083225488663
aF0.06889384239912033
aF0.06447624415159225
aF0.06675360351800919
aF0.05364832282066345
aF0.07061465084552765
aF0.06079830229282379
aF0.08909036219120026
aF0.07892759144306183
aF0.04607132822275162
aF0.06499086320400238
aF0.04028106853365898
aF0.05552259087562561
aF0.07752306759357452
aF0.08084507286548615
aF0.06165715306997299
aF0.07425819337368011
aF0.08658310025930405
aF0.07192181795835495
aF0.07257355004549026
aF0.04898735508322716
aF0.05025728791952133
aF0.059815168380737305
aF0.082367904484272
aF0.06421831250190735
aF0.08513756096363068
aF0.05209602043032646
aF0.08217156678438187
aF0.08865852653980255
aF0.07820951193571091
aF0.06737230718135834
aF0.056624479591846466
aF0.08268740773200989
aF0.06598277390003204
aF0.0857594907283783
aF0.07548465579748154
aF0.058178532868623734
aF0.04732813686132431
aF0.05047326534986496
aF0.07834699004888535
aF0.05919454246759415
aF0.07568580657243729
aF0.060709211975336075
aF0.07633913308382034
aF0.0812370553612709
aF0.0613049678504467
aF0.06197469308972359
aF0.06064154952764511
aF0.05856055021286011
aF0.07478439062833786
aF0.058645136654376984
aF0.08287214487791061
aF0.0735965147614479
aF0.06125830113887787
aF0.06973222643136978
aF0.07347223162651062
aF0.0694529116153717
aF0.06967215240001678
aF0.04939087852835655
aF0.06417670845985413
aF0.059649139642715454
aF0.06599351763725281
aF0.06153179332613945
aF0.05759358033537865
aF0.07219817489385605
aF0.06335079669952393
aF0.05308392643928528
aF0.07596831768751144
aF0.053228359669446945
aF0.08478766679763794
aF0.08791235089302063
aF0.056097958236932755
aF0.0694323480129242
aF0.06277326494455338
aF0.06396540254354477
aF0.07677091658115387
aF0.061510682106018066
aF0.0730888694524765
aF0.05570906773209572
aF0.07219401746988297
aF0.061799898743629456
aF0.05585983023047447
aF0.06138240918517113
aF0.0555545799434185
aF0.0734504759311676
aF0.06186375394463539
aF0.0831322968006134
aF0.061578989028930664
aF0.0626986101269722
aF0.06597629189491272
aF0.06553594768047333
aF0.07324331253767014
aF0.07023142278194427
aF0.07546977698802948
aF0.07271832972764969
aF0.05283087491989136
aF0.061581049114465714
aF0.07488136738538742
aF0.07396172732114792
aF0.06753873825073242
aF0.060874808579683304
aF0.05986004322767258
aF0.057280316948890686
aF0.07386734336614609
aF0.06918636709451675
aF0.07194756716489792
aF0.057031139731407166
aF0.06771218776702881
aF0.07199441641569138
aF0.05927886441349983
aF0.06643728166818619
aF0.05841376632452011
aF0.08366746455430984
aF0.08124809712171555
aF0.059938494116067886
aF0.07201728224754333
aF0.05966940149664879
aF0.07851891219615936
aF0.07476145774126053
aF0.05403123423457146
aF0.0743417739868164
aF0.053410038352012634
aF0.0683024674654007
aF0.06046999245882034
aF0.05534489080309868
aF0.06982181966304779
aF0.062405962496995926
aF0.08474624156951904
aF0.06728433817625046
aF0.08296462148427963
aF0.054297205060720444
aF0.06127854436635971
aF0.08948805928230286
aF0.0760330781340599
aF0.06324945390224457
aF0.08435121923685074
aF0.05419223755598068
aF0.06235376372933388
aF0.058523837476968765
aF0.07264745980501175
aF0.0792236179113388
aF0.06614135205745697
aF0.07381101697683334
aF0.07948585599660873
aF0.060357190668582916
aF0.062486857175827026
aF0.06933938711881638
aF0.083891861140728
aF0.06015085428953171
aF0.06103638559579849
aF0.0644601359963417
aF0.06272675842046738
aF0.07334829121828079
aF0.06219009682536125
aF0.07837751507759094
aF0.06492113322019577
aF0.06644508987665176
aF0.04709603264927864
aF0.06940604001283646
aF0.051647838205099106
aF0.06240623816847801
aF0.06702946871519089
aF0.07377614825963974
aF0.07055710256099701
aF0.04308028519153595
aF0.07216162979602814
aF0.060830142349004745
aF0.05359257012605667
aF0.06290305405855179
aF0.06433843821287155
aF0.07000479847192764
aF0.06232244148850441
aF0.05688444897532463
aF0.05658729001879692
aF0.06449397653341293
aF0.08618895709514618
aF0.07870171219110489
aF0.06381841748952866
aF0.07822398096323013
aF0.07375536113977432
aF0.06926893442869186
aF0.06848711520433426
aF0.07252693176269531
aF0.06479128450155258
aF0.06286808103322983
aF0.05963709577918053
aF0.05655199661850929
aF0.06474397331476212
aF0.06169667840003967
aF0.07270117849111557
aF0.0767139121890068
aF0.0702880322933197
aF0.07438098639249802
aF0.0711791068315506
aF0.06462327390909195
aF0.07570256292819977
aF0.061296842992305756
aF0.06072722002863884
aF0.07808589935302734
aF0.06027049571275711
aF0.05358189344406128
aF0.06359189003705978
aF0.060960426926612854
aF0.06699343025684357
aF0.0775458961725235
aF0.05552457273006439
aF0.07077337056398392
aF0.07283122092485428
aF0.06366772204637527
aF0.06991130858659744
aF0.0634276494383812
aF0.055577658116817474
aF0.06383572518825531
aF0.07174313068389893
aF0.0645567774772644
aF0.08258551359176636
aF0.06789618730545044
aF0.06231306120753288
aF0.06109975278377533
aF0.05843163654208183
aF0.06032976135611534
aF0.05296764522790909
aF0.05871277302503586
aF0.07074011117219925
aF0.05398276448249817
aF0.05942928418517113
aF0.06898261606693268
aF0.06479044258594513
aF0.08510487526655197
aF0.06951450556516647
aF0.05006473511457443
aF0.05901968106627464
aF0.06596364080905914
aF0.060306668281555176
aF0.11852964013814926
aF0.09213265776634216
aF0.06187593936920166
aF0.0850037932395935
aF0.05621148645877838
aF0.053575024008750916
aF0.052486978471279144
aF0.0679084062576294
aF0.0751730427145958
aF0.06569819897413254
aF0.0628260001540184
aF0.07872946560382843
aF0.06783805042505264
aF0.07038459926843643
aF0.08219705522060394
aF0.07725505530834198
aF0.06119118630886078
aF0.06163737550377846
aF0.062341444194316864
aF0.07414036989212036
aF0.0649082213640213
aF0.051075778901576996
aF0.05919621139764786
aF0.06529781222343445
aF0.06401575356721878
aF0.0741436704993248
aF0.06739944219589233
aF0.04751398041844368
aF0.03856491297483444
aF0.06130778789520264
aF0.06661179661750793
aF0.060357142239809036
aF0.07214143872261047
aF0.07073883712291718
aF0.05302633345127106
aF0.06703118979930878
aF0.07265155017375946
aF0.059796292334795
aF0.06647047400474548
aF0.061288487166166306
aF0.06740336865186691
aF0.0733058974146843
aF0.06588954478502274
aF0.059712715446949005
aF0.04427820071578026
aF0.057362690567970276
aF0.07356049865484238
aF0.06361371278762817
aF0.04826145991683006
aF0.07456755638122559
aF0.07904329895973206
aF0.06453948467969894
aF0.06596088409423828
aF0.06296046823263168
aF0.052689485251903534
aF0.07077217847108841
aF0.06205189228057861
aF0.09027601778507233
aF0.07645703852176666
aF0.04632978141307831
aF0.06994889676570892
aF0.04205010086297989
aF0.05484152212738991
aF0.08057164400815964
aF0.08371852338314056
aF0.06625661253929138
aF0.07369080930948257
aF0.0888560563325882
aF0.07326403260231018
aF0.06559643149375916
aF0.042640089988708496
aF0.04778269678354263
aF0.06160477548837662
aF0.09367063641548157
aF0.06701832264661789
aF0.08608084917068481
aF0.05097135901451111
aF0.0814100131392479
aF0.08613485842943192
aF0.0771089568734169
aF0.07268323749303818
aF0.06122792884707451
aF0.0830528661608696
aF0.06464798748493195
aF0.076779805123806
aF0.06933659315109253
aF0.058754488825798035
aF0.045438479632139206
aF0.0487678237259388
aF0.07475791871547699
aF0.0621010884642601
aF0.07063095271587372
aF0.056289952248334885
aF0.07505395263433456
aF0.08095353096723557
aF0.06183852255344391
aF0.05709710717201233
aF0.05568414181470871
aF0.06621863692998886
aF0.07182565331459045
aF0.05746544152498245
aF0.08194315433502197
aF0.06750863790512085
aF0.05853309482336044
aF0.06435586512088776
aF0.07060699909925461
aF0.06672152131795883
aF0.07198522984981537
aF0.04916469752788544
aF0.07056406140327454
aF0.057471808046102524
aF0.06438913941383362
aF0.05910545215010643
aF0.05782586708664894
aF0.0752168595790863
aF0.06506185978651047
aF0.05579487979412079
aF0.07143230736255646
aF0.053635843098163605
aF0.07786951959133148
aF0.0888812243938446
aF0.05569548159837723
aF0.07022776454687119
aF0.06176530569791794
aF0.0687195286154747
aF0.07151077687740326
aF0.06432408839464188
aF0.06926583498716354
aF0.059144411236047745
aF0.06719578057527542
aF0.06446792930364609
aF0.05226261541247368
aF0.05902276933193207
aF0.05250895023345947
aF0.0642068013548851
aF0.059061355888843536
aF0.08286690711975098
aF0.057329241186380386
aF0.06613380461931229
aF0.06836023181676865
aF0.06186188757419586
aF0.07421687990427017
aF0.06379422545433044
aF0.07453050464391708
aF0.06886053085327148
aF0.05912581831216812
aF0.06745392084121704
aF0.07666908204555511
aF0.07408750802278519
aF0.06824515014886856
aF0.05513140559196472
aF0.05800383538007736
aF0.054350145161151886
aF0.07848355919122696
aF0.06648891419172287
aF0.0734148696064949
aF0.06150816008448601
aF0.06468413770198822
aF0.0767030194401741
aF0.053734831511974335
aF0.06796204298734665
aF0.0551932267844677
aF0.09119857102632523
aF0.07997211813926697
aF0.06189009174704552
aF0.0736573338508606
aF0.053681835532188416
aF0.07475196570158005
aF0.07474172115325928
aF0.05675937235355377
aF0.07396558672189713
aF0.052030134946107864
aF0.06106879562139511
aF0.060510363429784775
aF0.060650572180747986
aF0.07072832435369492
aF0.06423775851726532
aF0.07749202847480774
aF0.0640486404299736
aF0.08183572441339493
aF0.05445000156760216
aF0.0629788264632225
aF0.08732141554355621
aF0.07418864965438843
aF0.06204921007156372
aF0.08265523612499237
aF0.051458247005939484
aF0.06483037769794464
aF0.05533938854932785
aF0.06668189913034439
aF0.07587680965662003
aF0.059679966419935226
aF0.07345981895923615
aF0.07835157215595245
aF0.057868797332048416
aF0.05574609339237213
aF0.06762035936117172
aF0.08215800672769547
aF0.057902924716472626
aF0.058895036578178406
aF0.061769455671310425
aF0.06123784929513931
aF0.07438229769468307
aF0.06695450842380524
aF0.07349477708339691
aF0.059204377233982086
aF0.06499387323856354
aF0.04692831262946129
aF0.06544793397188187
aF0.04869439825415611
aF0.06432727724313736
aF0.06770332157611847
aF0.07042644917964935
aF0.07056871056556702
aF0.04458361864089966
aF0.07252009212970734
aF0.05975176393985748
aF0.053241800516843796
aF0.06598116457462311
aF0.0648784339427948
aF0.06687769293785095
aF0.06102791056036949
aF0.05844680592417717
aF0.05556546151638031
aF0.06433986127376556
aF0.08612144738435745
aF0.07474865019321442
aF0.06690284609794617
aF0.08097577840089798
aF0.07099097222089767
aF0.06197475641965866
aF0.06675240397453308
aF0.07387306541204453
aF0.06518745422363281
aF0.06254169344902039
aF0.061382751911878586
aF0.054734356701374054
aF0.06391023844480515
aF0.0644121840596199
aF0.06781173497438431
aF0.07601712644100189
aF0.07471128553152084
aF0.06819294393062592
aF0.07103370875120163
aF0.05938923358917236
aF0.0730612576007843
aF0.06414861977100372
aF0.05443281680345535
aF0.07801894843578339
aF0.05599856749176979
aF0.05495490878820419
aF0.06036124378442764
aF0.06257236003875732
aF0.06657913327217102
aF0.07700785249471664
aF0.0558832585811615
aF0.0653981864452362
aF0.07024942338466644
aF0.0632830560207367
aF0.06750170141458511
aF0.05841389298439026
aF0.05384477972984314
aF0.0631597489118576
aF0.07707525789737701
aF0.06157265976071358
aF0.08274249732494354
aF0.06650466471910477
aF0.07144846022129059
aF0.058821383863687515
aF0.05481455475091934
aF0.05870777368545532
aF0.052583422511816025
aF0.06039602309465408
aF0.067106232047081
aF0.05240771546959877
aF0.05338727682828903
aF0.07322923839092255
aF0.05913388729095459
aF0.07840149849653244
aF0.06583738327026367
aF0.04613301530480385
aF0.05890408158302307
aF0.07456567138433456
aF0.05747261643409729
aF0.11809784919023514
aF0.07885139435529709
aF0.06250447034835815
aF0.0792713314294815
aF0.058693043887615204
aF0.060114555060863495
aF0.04893020540475845
aF0.06967359781265259
aF0.07177703082561493
aF0.06353172659873962
aF0.065443255007267
aF0.0771990418434143
aF0.07125544548034668
aF0.06763419508934021
aF0.08391471207141876
aF0.07169472426176071
aF0.055935077369213104
aF0.06187043711543083
aF0.062342364341020584
aF0.0725833922624588
aF0.06830340623855591
aF0.04802002012729645
aF0.05975963920354843
aF0.06305186450481415
aF0.06611188501119614
aF0.07136888056993484
aF0.06975504755973816
aF0.046205710619688034
aF0.03798113018274307
aF0.05736314505338669
aF0.06290622800588608
aF0.05782643333077431
aF0.07052405923604965
aF0.07337617129087448
aF0.05169598385691643
aF0.06872759014368057
aF0.07330726087093353
aF0.0557546392083168
aF0.06941647827625275
aF0.06643680483102798
aF0.06341313570737839
aF0.06684940308332443
aF0.0597638376057148
aF0.058944523334503174
aF0.04482187703251839
aF0.054171305149793625
aF0.07665245234966278
aF0.06602313369512558
aF0.05022465065121651
aF0.06797324866056442
aF0.07402347773313522
aF0.06172552704811096
aF0.06766224652528763
aF0.06888288259506226
aF0.05527188256382942
aF0.06531583517789841
aF0.06261267513036728
aF0.08888988941907883
aF0.07594503462314606
aF0.045589715242385864
aF0.0668245181441307
aF0.04185468703508377
aF0.05949537828564644
aF0.0793188288807869
aF0.0843772366642952
aF0.06801087409257889
aF0.07177680730819702
aF0.08065008372068405
aF0.06959700584411621
aF0.06485074013471603
aF0.045538272708654404
aF0.04480781778693199
aF0.0588604137301445
aF0.08910772949457169
aF0.062105096876621246
aF0.08221770823001862
aF0.051821861416101456
aF0.07814794778823853
aF0.08996301889419556
aF0.07770749926567078
aF0.0626562163233757
aF0.05890684947371483
aF0.08221641927957535
aF0.06558015942573547
aF0.07674089074134827
aF0.0728924572467804
aF0.06076906993985176
aF0.04324514791369438
aF0.04967939108610153
aF0.0790257453918457
aF0.06396351754665375
aF0.07098367065191269
aF0.058957088738679886
aF0.0732480064034462
aF0.08167096972465515
aF0.0613301582634449
aF0.06218354403972626
aF0.05145754665136337
aF0.06177081912755966
aF0.06904833018779755
aF0.06049995496869087
aF0.07523190975189209
aF0.06551507860422134
aF0.06476934999227524
aF0.0636664405465126
aF0.06612709909677505
aF0.06501001864671707
aF0.0666695088148117
aF0.04534556716680527
aF0.06371598690748215
aF0.0606590211391449
aF0.0633324533700943
aF0.0600796677172184
aF0.05695896968245506
aF0.07245879620313644
aF0.0625520646572113
aF0.05519472435116768
aF0.07354582101106644
aF0.054139643907547
aF0.07956378161907196
aF0.08605244755744934
aF0.055662672966718674
aF0.06972411274909973
aF0.06270600110292435
aF0.06734787672758102
aF0.07118967920541763
aF0.05622981861233711
aF0.06773239374160767
aF0.05262470617890358
aF0.06762746721506119
aF0.06459348648786545
aF0.0524577870965004
aF0.054208364337682724
aF0.051278650760650635
aF0.06786684691905975
aF0.059096768498420715
aF0.08012641966342926
aF0.055624090135097504
aF0.0647178590297699
aF0.06827754527330399
aF0.06319572776556015
aF0.06804914027452469
aF0.06868128478527069
aF0.06977114081382751
aF0.06969670206308365
aF0.05684114247560501
aF0.06306499242782593
aF0.07756797969341278
aF0.07179339230060577
aF0.06800173223018646
aF0.05598324164748192
aF0.05877974256873131
aF0.054445333778858185
aF0.06912381947040558
aF0.07052762061357498
aF0.06858521699905396
aF0.059728242456912994
aF0.07176357507705688
aF0.07105814665555954
aF0.057294812053442
aF0.06313392519950867
aF0.05733869969844818
aF0.08961175382137299
aF0.07689972966909409
aF0.06252221763134003
aF0.08112145215272903
aF0.0575585812330246
aF0.0769520029425621
aF0.07012301683425903
aF0.0530870296061039
aF0.06872262060642242
aF0.052024904638528824
aF0.06335292756557465
aF0.06155994161963463
aF0.058153778314590454
aF0.06752865016460419
aF0.06386211514472961
aF0.08327001333236694
aF0.06168190389871597
aF0.07944779843091965
aF0.05046677589416504
aF0.06343209743499756
aF0.08937599509954453
aF0.07247170805931091
aF0.06215030327439308
aF0.07730589061975479
aF0.05428795889019966
aF0.06451120227575302
aF0.059609755873680115
aF0.06720497459173203
aF0.07601365447044373
aF0.06104282662272453
aF0.07547591626644135
aF0.07346729934215546
aF0.05593098700046539
aF0.05818241089582443
aF0.06495601683855057
aF0.08352277427911758
aF0.057371050119400024
aF0.06086438149213791
aF0.05952244624495506
aF0.062304846942424774
aF0.07080785185098648
aF0.06602399051189423
aF0.07549980282783508
aF0.06755530834197998
aF0.06601134687662125
aF0.044341590255498886
aF0.06693871319293976
aF0.05066528543829918
aF0.06027977541089058
aF0.06581190228462219
aF0.07359974086284637
aF0.07049306482076645
aF0.040892619639635086
aF0.06971146166324615
aF0.060838110744953156
aF0.05480293929576874
aF0.06717970222234726
aF0.06335950642824173
aF0.06301844865083694
aF0.0636565238237381
aF0.05894073098897934
aF0.05452333763241768
aF0.05991022661328316
aF0.08325392007827759
aF0.07686039805412292
aF0.06380143016576767
aF0.07730509340763092
aF0.06993693858385086
aF0.06590665131807327
aF0.0663992390036583
aF0.07013409584760666
aF0.0624333992600441
aF0.0624455064535141
aF0.06437031179666519
aF0.05230984091758728
aF0.06310207396745682
aF0.06145266816020012
aF0.06619428843259811
aF0.08036132901906967
aF0.0724034383893013
aF0.06511904299259186
aF0.06569363921880722
aF0.058682430535554886
aF0.07668028771877289
aF0.0625944435596466
aF0.058709267526865005
aF0.07664058357477188
aF0.05956260859966278
aF0.05351097881793976
aF0.06291089206933975
aF0.06471993774175644
aF0.07082928717136383
aF0.07472453266382217
aF0.05412159860134125
aF0.0655062347650528
aF0.07318428158760071
aF0.060293443500995636
aF0.0677424967288971
aF0.06590470671653748
aF0.05422598496079445
aF0.06591308861970901
aF0.07638807594776154
aF0.06274154037237167
aF0.07889804989099503
aF0.06604139506816864
aF0.06400184333324432
aF0.05874880403280258
aF0.058615393936634064
aF0.06300045549869537
aF0.05130438134074211
aF0.060642123222351074
aF0.07204868644475937
aF0.056009456515312195
aF0.05812418833374977
aF0.06662815809249878
aF0.06600173562765121
aF0.07673781365156174
aF0.06645037978887558
aF0.0450354628264904
aF0.0625833049416542
aF0.0693274661898613
aF0.05688215792179108
aF0.11247696727514267
aF0.08141230046749115
aF0.05883525684475899
aF0.07854402810335159
aF0.05864224210381508
aF0.05796046927571297
aF0.048779211938381195
aF0.07045511901378632
aF0.06942199170589447
aF0.05893322452902794
aF0.06430498510599136
aF0.08082350343465805
aF0.0689118355512619
aF0.0672847181558609
aF0.0815822035074234
aF0.07389799505472183
aF0.05477442964911461
aF0.06373707950115204
aF0.06519051641225815
aF0.07102226465940475
aF0.06524062901735306
aF0.04954417422413826
aF0.05895264446735382
aF0.06091699004173279
aF0.05727614089846611
aF0.07155616581439972
aF0.06715285778045654
aF0.04740075767040253
aF0.03604363650083542
aF0.05924111604690552
aF0.06413501501083374
aF0.05653505027294159
aF0.07385563850402832
aF0.07086410373449326
aF0.05655865743756294
aF0.06992479413747787
aF0.07264643907546997
aF0.05395280942320824
aF0.06614389270544052
aF0.0633898377418518
aF0.06609214097261429
aF0.06956532597541809
aF0.05316661298274994
aF0.0567694790661335
aF0.044730208814144135
aF0.05444766581058502
aF0.0735882818698883
aF0.0639922246336937
aF0.05028469115495682
aF0.06731054931879044
aF0.07548599690198898
aF0.05972374230623245
aF0.06784996390342712
aF0.06097652390599251
aF0.05606536194682121
aF0.06394368410110474
aF0.06560422480106354
aF0.08824116736650467
aF0.078548364341259
aF0.043852727860212326
aF0.062238842248916626
aF0.03884880989789963
aF0.053839199244976044
aF0.07512111216783524
aF0.08485767990350723
aF0.06193863973021507
aF0.07637853920459747
aF0.08860700577497482
aF0.06934510916471481
aF0.06413518637418747
aF0.0435636080801487
aF0.04833054915070534
aF0.057349443435668945
aF0.08309943974018097
aF0.0630531758069992
aF0.08696532249450684
aF0.051316551864147186
aF0.07616560161113739
aF0.08766498416662216
aF0.08391537517309189
aF0.07325896620750427
aF0.06063830107450485
aF0.07973263412714005
aF0.06600410491228104
aF0.07413293421268463
aF0.07418227195739746
aF0.05735668167471886
aF0.043171484023332596
aF0.051543593406677246
aF0.07447778433561325
aF0.061595674604177475
aF0.06998085230588913
aF0.05616266652941704
aF0.07638764381408691
aF0.08052215725183487
aF0.06017531454563141
aF0.05845079571008682
aF0.05855920910835266
aF0.06053297966718674
aF0.07202945649623871
aF0.05882353335618973
aF0.07561232149600983
aF0.07118342816829681
aF0.06046333909034729
aF0.063774473965168
aF0.07025942206382751
aF0.06916949152946472
aF0.0702933520078659
aF0.0443955659866333
aF0.06554846465587616
aF0.05700342357158661
aF0.06369691342115402
aF0.059750743210315704
aF0.055037468671798706
aF0.07645055651664734
aF0.06040729582309723
aF0.05555729568004608
aF0.07476712018251419
aF0.0525967963039875
aF0.07464291900396347
aF0.08202056586742401
aF0.05905808135867119
aF0.06853587180376053
aF0.06191330403089523
aF0.06392931938171387
aF0.07260438799858093
aF0.05895141139626503
aF0.06569015234708786
aF0.05487159639596939
aF0.06627903133630753
aF0.06629622727632523
aF0.05081756040453911
aF0.056748468428850174
aF0.048538729548454285
aF0.0703129693865776
aF0.059836387634277344
aF0.08469643443822861
aF0.05923543497920036
aF0.0645856112241745
aF0.07014667242765427
aF0.06266313046216965
aF0.06645658612251282
aF0.06199201941490173
aF0.07585883885622025
aF0.07199196517467499
aF0.05299963429570198
aF0.06375104188919067
aF0.07310552150011063
aF0.07156684249639511
aF0.06560738384723663
aF0.05653848871588707
aF0.05675363540649414
aF0.05519307777285576
aF0.07523714005947113
aF0.06505340337753296
aF0.07100383937358856
aF0.060884442180395126
aF0.06566575169563293
aF0.07058630883693695
aF0.055698879063129425
aF0.06432545185089111
aF0.062007829546928406
aF0.09154503792524338
aF0.07887785136699677
aF0.06215333938598633
aF0.07087162882089615
aF0.053041353821754456
aF0.0764557346701622
aF0.07365947961807251
aF0.053286727517843246
aF0.06729858368635178
aF0.05468850955367088
aF0.06293056905269623
aF0.05819673091173172
aF0.05932193621993065
aF0.06452066451311111
aF0.06668645888566971
aF0.08051840215921402
aF0.06316171586513519
aF0.07616488635540009
aF0.05436703935265541
aF0.05935119464993477
aF0.08942283689975739
aF0.07971028238534927
aF0.06095140799880028
aF0.0845976173877716
aF0.05146266892552376
aF0.06507271528244019
aF0.0565815269947052
aF0.06750617921352386
aF0.07172007858753204
aF0.061872098594903946
aF0.07368827611207962
aF0.08376244455575943
aF0.05674232915043831
aF0.056193675845861435
aF0.06831774860620499
aF0.08260224759578705
aF0.061687156558036804
aF0.06290367990732193
aF0.06035845726728439
aF0.062453508377075195
aF0.0711890384554863
aF0.06440460681915283
aF0.07135452330112457
aF0.0676092877984047
aF0.0657128170132637
aF0.047122541815042496
aF0.0649450421333313
aF0.04924413934350014
aF0.0614287368953228
aF0.06443008780479431
aF0.07092601805925369
aF0.0674695149064064
aF0.041560977697372437
aF0.07448529452085495
aF0.06120902672410011
aF0.05189979821443558
aF0.06279705464839935
aF0.06724852323532104
aF0.06569024920463562
aF0.06042015925049782
aF0.06025169789791107
aF0.05759362503886223
aF0.0632469430565834
aF0.08309178054332733
aF0.07460799813270569
aF0.06697966903448105
aF0.08037817478179932
aF0.0699041560292244
aF0.06292115896940231
aF0.06752147525548935
aF0.07542585581541061
aF0.06427081674337387
aF0.0655771940946579
aF0.06601455062627792
aF0.05444909632205963
aF0.07073107361793518
aF0.06605760753154755
aF0.06424827128648758
aF0.07376889884471893
aF0.07326997071504593
aF0.06538477540016174
aF0.06163546070456505
aF0.06006024405360222
aF0.0776042491197586
aF0.059401191771030426
aF0.05500258505344391
aF0.07033737003803253
aF0.05465758219361305
aF0.05747033283114433
aF0.061792805790901184
aF0.06084291264414787
aF0.06807417422533035
aF0.07714765518903732
aF0.05205287039279938
aF0.06585796922445297
aF0.07052238285541534
aF0.0680387020111084
aF0.06821541488170624
aF0.0580100454390049
aF0.05132975056767464
aF0.05848568305373192
aF0.07413499802350998
aF0.06604551523923874
aF0.07636172324419022
aF0.069043830037117
aF0.06228358671069145
aF0.05624718591570854
aF0.06075109913945198
aF0.05967945232987404
aF0.04408620670437813
aF0.05837132781744003
aF0.0706213191151619
aF0.05165879800915718
aF0.05283888429403305
aF0.06969429552555084
aF0.06160713732242584
aF0.08492676168680191
aF0.0655779018998146
aF0.045971184968948364
aF0.06225366145372391
aF0.06464170664548874
aF0.06369353085756302
aF0.11877156794071198
aF0.07983577251434326
aF0.053754985332489014
aF0.07882551103830338
aF0.05474771186709404
aF0.06109917536377907
aF0.05070723965764046
aF0.06766943633556366
aF0.06554356962442398
aF0.05911880359053612
aF0.06785134226083755
aF0.08300434052944183
aF0.06854120641946793
aF0.07175111025571823
aF0.08345118165016174
aF0.07289598882198334
aF0.05232832208275795
aF0.06214585155248642
aF0.06848375499248505
aF0.06522577255964279
aF0.0663091316819191
aF0.04650244116783142
aF0.05490516871213913
aF0.05830426141619682
aF0.05972932651638985
aF0.06950579583644867
aF0.0674704983830452
aF0.04735850542783737
aF0.039836037904024124
aF0.058138515800237656
aF0.06553627550601959
aF0.05596483126282692
aF0.06567472964525223
aF0.06910458952188492
aF0.051579076796770096
aF0.07088392972946167
aF0.07001671195030212
aF0.062253884971141815
aF0.07329162210226059
aF0.06592722237110138
aF0.06444261968135834
aF0.06844867765903473
aF0.05828816071152687
aF0.059309884905815125
aF0.0437881276011467
aF0.055866923183202744
aF0.07520011067390442
aF0.06873961538076401
aF0.04969758912920952
aF0.06458346545696259
aF0.07885664701461792
aF0.061614036560058594
aF0.06684228032827377
aF0.06335548311471939
aF0.055250950157642365
aF0.06702694296836853
aF0.06087683141231537
aF0.08926127105951309
aF0.07621292769908905
aF0.04595772922039032
aF0.06503943353891373
aF0.04265212640166283
aF0.05873747542500496
aF0.07618074864149094
aF0.07768082618713379
aF0.06256761401891708
aF0.07650481909513474
aF0.0857837051153183
aF0.07508911937475204
aF0.0671306625008583
aF0.043483857065439224
aF0.047568753361701965
aF0.05993921309709549
aF0.08799168467521667
aF0.06485914438962936
aF0.08074159175157547
aF0.050784964114427567
aF0.07580964267253876
aF0.084204763174057
aF0.07803433388471603
aF0.06748529523611069
aF0.060912881046533585
aF0.0776200070977211
aF0.06216605007648468
aF0.07802896201610565
aF0.06610659509897232
aF0.05882611498236656
aF0.04352231323719025
aF0.04946799948811531
aF0.0736336037516594
aF0.06385451555252075
aF0.05953389033675194
aF0.05707897990942001
aF0.07325533777475357
aF0.08125617355108261
aF0.05725789815187454
aF0.05594204366207123
aF0.06070059910416603
aF0.06204194575548172
aF0.068194180727005
aF0.059234436601400375
aF0.07197821885347366
aF0.06474831700325012
aF0.058772407472133636
aF0.0632900595664978
aF0.06625201553106308
aF0.0683436319231987
aF0.0681440532207489
aF0.04940669611096382
aF0.06250578910112381
aF0.05742506682872772
aF0.06298917531967163
aF0.05785653740167618
aF0.05692287161946297
aF0.074464350938797
aF0.05922387167811394
aF0.05539967119693756
aF0.07636076211929321
aF0.04887666180729866
aF0.07582978159189224
aF0.08100772649049759
aF0.053974103182554245
aF0.0702170580625534
aF0.062321435660123825
aF0.06336846202611923
aF0.07067989557981491
aF0.05802610144019127
aF0.06657122820615768
aF0.05264268070459366
aF0.06388580799102783
aF0.061229147017002106
aF0.05307278037071228
aF0.05972778797149658
aF0.05260208994150162
aF0.06481988728046417
aF0.05931389331817627
aF0.07658585906028748
aF0.052899256348609924
aF0.0656442865729332
aF0.06512656062841415
aF0.06453593075275421
aF0.06445387005805969
aF0.06447413563728333
aF0.07318836450576782
aF0.06783124804496765
aF0.05462665483355522
aF0.05706047639250755
aF0.07418178021907806
aF0.07512480765581131
aF0.06896968185901642
aF0.057976800948381424
aF0.0600113607943058
aF0.053110938519239426
aF0.06704433262348175
aF0.0637006089091301
aF0.06968138366937637
aF0.057285670191049576
aF0.06061496585607529
aF0.07033874094486237
aF0.05236748978495598
aF0.05948100611567497
aF0.06066051870584488
aF0.09184236824512482
aF0.07858074456453323
aF0.05902392789721489
aF0.07275381684303284
aF0.050704870373010635
aF0.0761866644024849
aF0.07301390916109085
aF0.055222287774086
aF0.06860335916280746
aF0.05540973320603371
aF0.06083937734365463
aF0.06084377318620682
aF0.05412084981799126
aF0.06473489850759506
aF0.06251388788223267
aF0.07739622890949249
aF0.055250562727451324
aF0.07632134109735489
aF0.053752683103084564
aF0.0637127161026001
aF0.0897819995880127
aF0.07307998090982437
aF0.06417247653007507
aF0.08708745241165161
aF0.05903412401676178
aF0.061082348227500916
aF0.05701072886586189
aF0.06891845911741257
aF0.07332523912191391
aF0.058733515441417694
aF0.06945248693227768
aF0.07967635989189148
aF0.05897040292620659
aF0.060925137251615524
aF0.06482254713773727
aF0.08151417970657349
aF0.05698203295469284
aF0.062071945518255234
aF0.058819953352212906
aF0.06329445540904999
aF0.06729628890752792
aF0.060962870717048645
aF0.0750051811337471
aF0.06154688447713852
aF0.06395910680294037
aF0.044345010071992874
aF0.0678069069981575
aF0.04978010430932045
aF0.05968659371137619
aF0.06343420594930649
aF0.06717969477176666
aF0.06059533357620239
aF0.042642589658498764
aF0.07003536820411682
aF0.058666910976171494
aF0.0506061315536499
aF0.0623360350728035
aF0.05961569771170616
aF0.063983254134655
aF0.06254036724567413
aF0.06202772632241249
aF0.05514710769057274
aF0.060760997235774994
aF0.08394805341959
aF0.07495546340942383
aF0.06461448222398758
aF0.07312536239624023
aF0.06450188905000687
aF0.06264257431030273
aF0.06536790728569031
aF0.07105802744626999
aF0.06683196872472763
aF0.0614730566740036
aF0.06235312670469284
aF0.053194016218185425
aF0.06206810846924782
aF0.06677944213151932
aF0.0638957992196083
aF0.07246972620487213
aF0.07379363477230072
aF0.0692824199795723
aF0.06593598425388336
aF0.05642346665263176
aF0.07325384020805359
aF0.06369948387145996
aF0.05500955879688263
aF0.07384210079908371
aF0.053919512778520584
aF0.053406354039907455
aF0.06184655800461769
aF0.05905238166451454
aF0.06794247776269913
aF0.07627745717763901
aF0.051180124282836914
aF0.06430498510599136
aF0.07202429324388504
aF0.06108756363391876
aF0.06676887720823288
aF0.06451790034770966
aF0.05429326370358467
aF0.06396110355854034
aF0.07485326379537582
aF0.06139726936817169
aF0.0775027647614479
aF0.06577695161104202
aF0.06235969811677933
aF0.05834496393799782
aF0.058813564479351044
aF0.06008180230855942
aF0.04784179478883743
aF0.05913407355546951
aF0.06960850954055786
aF0.052084993571043015
aF0.05237502232193947
aF0.0707932859659195
aF0.06610236316919327
aF0.07922389358282089
aF0.06373944133520126
aF0.04359275847673416
aF0.0619838610291481
aF0.06569384783506393
aF0.06183581054210663
aF0.11903072893619537
aF0.08445156365633011
aF0.057307351380586624
aF0.08176013827323914
aF0.05435208976268768
aF0.05859008803963661
aF0.04959649220108986
aF0.06856562942266464
aF0.07310029864311218
aF0.05924179404973984
aF0.06167057529091835
aF0.07583770900964737
aF0.06746269762516022
aF0.06373032182455063
aF0.0806950181722641
aF0.068020761013031
aF0.055705804377794266
aF0.057379428297281265
aF0.06071522459387779
aF0.06587253510951996
aF0.06354919821023941
aF0.047422315925359726
aF0.056974172592163086
aF0.05731063708662987
aF0.06230313330888748
aF0.06964282691478729
aF0.0668393224477768
aF0.042892176657915115
aF0.03913889825344086
aF0.05556024983525276
aF0.06442291289567947
aF0.05190851539373398
aF0.06974662840366364
aF0.06806483864784241
aF0.05095464736223221
aF0.06774301826953888
aF0.06840608268976212
aF0.05850394815206528
aF0.06922528147697449
aF0.0659852996468544
aF0.06318439543247223
aF0.06529667973518372
aF0.05925581976771355
aF0.0531526617705822
aF0.044968582689762115
aF0.056160859763622284
aF0.07152534276247025
aF0.06202835962176323
aF0.04755174741148949
aF0.06587398797273636
aF0.07685782015323639
aF0.061016473919153214
aF0.0663687139749527
aF0.06243706867098808
aF0.04884549230337143
aF0.0658363550901413
aF0.06355197727680206
aF0.08775927126407623
aF0.07758747041225433
aF0.04454288259148598
aF0.07067602127790451
aF0.04086528345942497
aF0.05672725662589073
aF0.07133844494819641
aF0.08007965981960297
aF0.06058811768889427
aF0.07426987588405609
aF0.0811510682106018
aF0.0690728947520256
aF0.06750012934207916
aF0.04569600895047188
aF0.046846430748701096
aF0.05852556601166725
aF0.0852978453040123
aF0.06450086832046509
aF0.07790588587522507
aF0.05303747579455376
aF0.07804536074399948
aF0.08750005811452866
aF0.0787276178598404
aF0.07057613134384155
aF0.05441613867878914
aF0.07938190549612045
aF0.06103389710187912
aF0.08234939724206924
aF0.07077385485172272
aF0.06158687174320221
aF0.04399694874882698
aF0.05032967031002045
aF0.07063723355531693
aF0.05663127824664116
aF0.06772811710834503
aF0.058830901980400085
aF0.0773153305053711
aF0.08084898442029953
aF0.05589595064520836
aF0.05391239747405052
aF0.05738794058561325
aF0.05769289284944534
aF0.07339537143707275
aF0.0575282983481884
aF0.07894954085350037
aF0.0653926283121109
aF0.06121054291725159
aF0.06497146934270859
aF0.06718464940786362
aF0.07192524522542953
aF0.06787902116775513
aF0.04462870955467224
aF0.0635283812880516
aF0.057948656380176544
aF0.06480936706066132
aF0.0595041960477829
aF0.05652967095375061
aF0.07285630702972412
aF0.05890076979994774
aF0.05352206155657768
aF0.07149027287960052
aF0.04949376732110977
aF0.0782926008105278
aF0.08075983077287674
aF0.05764889344573021
aF0.07333867996931076
aF0.05768919736146927
aF0.06679879873991013
aF0.06510298699140549
aF0.054479509592056274
aF0.0637248083949089
aF0.05556679517030716
aF0.06632326543331146
aF0.05876234173774719
aF0.05197165161371231
aF0.05604452267289162
aF0.04849810525774956
aF0.06834781914949417
aF0.05930815264582634
aF0.07563737779855728
aF0.054711371660232544
aF0.06290709972381592
aF0.06347329169511795
aF0.062097832560539246
aF0.06557802855968475
aF0.06415735185146332
aF0.07295773178339005
aF0.06896766275167465
aF0.05421800911426544
aF0.06023167073726654
aF0.07440680265426636
aF0.07499305158853531
aF0.06662489473819733
aF0.057366639375686646
aF0.05463700741529465
aF0.055461592972278595
aF0.0704813152551651
aF0.06870295107364655
aF0.07004962861537933
aF0.05938416346907616
aF0.06375660747289658
aF0.07087983936071396
aF0.05349073186516762
aF0.06170319393277168
aF0.05590776354074478
aF0.09561508893966675
aF0.07801897823810577
aF0.06244993954896927
aF0.07182937115430832
aF0.0541384182870388
aF0.07525177299976349
aF0.07140239328145981
aF0.057162992656230927
aF0.07105228304862976
aF0.0527820959687233
aF0.061382174491882324
aF0.0590721033513546
aF0.055506788194179535
aF0.06370764970779419
aF0.06301891058683395
aF0.078412264585495
aF0.06454689055681229
aF0.08051147311925888
aF0.055837973952293396
aF0.06590232253074646
aF0.08702827990055084
aF0.07221861183643341
aF0.06394939124584198
aF0.08514861017465591
aF0.049704041332006454
aF0.06057816371321678
aF0.05913720279932022
aF0.06961330026388168
aF0.07690399885177612
aF0.057598333805799484
aF0.07450834661722183
aF0.07391882687807083
aF0.05757574737071991
aF0.05825895443558693
aF0.06977248936891556
aF0.07898552715778351
aF0.05498529598116875
aF0.05837446451187134
aF0.057898376137018204
aF0.0651732012629509
aF0.0708840936422348
aF0.059355344623327255
aF0.07753656804561615
aF0.0629628375172615
aF0.06496613472700119
aF0.044753704220056534
aF0.06773301959037781
aF0.04788142070174217
aF0.055478423833847046
aF0.06304135173559189
aF0.06531684845685959
aF0.06465762108564377
aF0.03966522589325905
aF0.07626671344041824
aF0.059730298817157745
aF0.04764171317219734
aF0.06492592394351959
aF0.0629226341843605
aF0.0633653998374939
aF0.05865909531712532
aF0.05572548508644104
aF0.05745325982570648
aF0.0619739331305027
aF0.0816647857427597
aF0.073707714676857
aF0.06260005384683609
aF0.07747523486614227
aF0.06508859992027283
aF0.06538304686546326
aF0.06851325929164886
aF0.07385902106761932
aF0.057916752994060516
aF0.06449902057647705
aF0.0625486671924591
aF0.04918711632490158
aF0.06584510207176208
aF0.06305912882089615
aF0.06512375921010971
aF0.07096453756093979
aF0.0696340873837471
aF0.06540614366531372
aF0.06640388816595078
aF0.062175072729587555
aF0.07666134089231491
aF0.06527015566825867
aF0.05560688301920891
aF0.07651814818382263
aF0.059936683624982834
aF0.052995190024375916
aF0.062350548803806305
aF0.06039673835039139
aF0.06734856218099594
aF0.07026363909244537
aF0.048487212508916855
aF0.06547804176807404
aF0.07101494073867798
aF0.05777623504400253
aF0.06876224279403687
aF0.059264227747917175
aF0.049769241362810135
aF0.06303264945745468
aF0.0747700035572052
aF0.06159816309809685
aF0.0779348611831665
aF0.06507538259029388
aF0.06188485771417618
aF0.05940648168325424
aF0.055638425052165985
aF0.06003293767571449
aF0.049962520599365234
aF0.05747969448566437
aF0.07030266523361206
aF0.051861852407455444
aF0.05733621120452881
aF0.06936796009540558
aF0.05755486711859703
aF0.08258014172315598
aF0.06821759790182114
aF0.044032029807567596
aF0.06038852408528328
aF0.06679391860961914
aF0.06135503575205803
aF0.11450732499361038
aF0.0834088996052742
aF0.05435556918382645
aF0.076669842004776
aF0.0551554411649704
aF0.058555446565151215
aF0.048399657011032104
aF0.06749570369720459
aF0.06818761676549911
aF0.05761871114373207
aF0.06328359991312027
aF0.07534454017877579
aF0.06667447835206985
aF0.0671904906630516
aF0.07658541202545166
aF0.06958846747875214
aF0.05326152220368385
aF0.05772900953888893
aF0.058132804930210114
aF0.0712510496377945
aF0.06603522598743439
aF0.046011410653591156
aF0.05942494422197342
aF0.060744378715753555
aF0.06270063668489456
aF0.07018974423408508
aF0.06296517699956894
aF0.045481812208890915
aF0.03536633774638176
aF0.052321769297122955
aF0.06447545439004898
aF0.05354991555213928
aF0.06976824253797531
aF0.06746874004602432
aF0.05028536170721054
aF0.067203588783741
aF0.06783583760261536
aF0.05827343463897705
aF0.07248885184526443
aF0.06664663553237915
aF0.06552804261445999
aF0.06869876384735107
aF0.05489013344049454
aF0.05740516260266304
aF0.0464455746114254
aF0.05531981587409973
aF0.07227563858032227
aF0.06042538955807686
aF0.05173848196864128
aF0.06561817973852158
aF0.07497400045394897
aF0.05654419586062431
aF0.06255429983139038
aF0.06063118949532509
aF0.0520302839577198
aF0.06603004783391953
aF0.05880250036716461
aF0.0853768065571785
aF0.07843802869319916
aF0.04550943896174431
aF0.0702088326215744
aF0.042059361934661865
aF0.05612364783883095
aF0.07378239929676056
aF0.0841945931315422
aF0.06503202021121979
aF0.07433373481035233
aF0.0792088732123375
aF0.06482125073671341
aF0.06252293288707733
aF0.044435519725084305
aF0.04654890298843384
aF0.05806538462638855
aF0.08370734006166458
aF0.06174775958061218
aF0.07895457744598389
aF0.05512848123908043
aF0.07778117805719376
aF0.0831209197640419
aF0.07639814913272858
aF0.06990674883127213
aF0.05386563017964363
aF0.07774900645017624
aF0.06865104287862778
aF0.07521078735589981
aF0.07001948356628418
aF0.05434548854827881
aF0.046317290514707565
aF0.05228203162550926
aF0.06815972179174423
aF0.06040488928556442
aF0.06646145135164261
aF0.06130479276180267
aF0.07424955070018768
aF0.08160784840583801
aF0.05968644469976425
aF0.05429500341415405
aF0.056515514850616455
aF0.059669505804777145
aF0.07633469253778458
aF0.0614984929561615
aF0.07627825438976288
aF0.065252885222435
aF0.05963282287120819
aF0.06422001123428345
aF0.06902524083852768
aF0.0678122416138649
aF0.06730291992425919
aF0.04473958536982536
aF0.060006506741046906
aF0.057155150920152664
aF0.06145090609788895
aF0.05314261466264725
aF0.05607687309384346
aF0.07427144050598145
aF0.06059970706701279
aF0.05603538453578949
aF0.0717644989490509
aF0.050230588763952255
aF0.07821031659841537
aF0.08409930020570755
aF0.05919525772333145
aF0.06648899614810944
aF0.05585069954395294
aF0.05864700675010681
aF0.06741100549697876
aF0.05618036910891533
aF0.06702933460474014
aF0.055119384080171585
aF0.06458736956119537
aF0.06265898793935776
aF0.05098045617341995
aF0.057578954845666885
aF0.051573142409324646
aF0.06704938411712646
aF0.059581685811281204
aF0.08082008361816406
aF0.0539700984954834
aF0.06099014729261398
aF0.06304717063903809
aF0.05929649621248245
aF0.06615731865167618
aF0.06799586862325668
aF0.06948542594909668
aF0.06593279540538788
aF0.05540446192026138
aF0.06095031276345253
aF0.0719718411564827
aF0.07265843451023102
aF0.062190890312194824
aF0.05611126124858856
aF0.059455227106809616
aF0.05201827734708786
aF0.06984753161668777
aF0.06484896689653397
aF0.07085452973842621
aF0.055215224623680115
aF0.06250874698162079
aF0.06964980065822601
aF0.05408969894051552
aF0.06326920539140701
aF0.05721872299909592
aF0.09109163284301758
aF0.08035209029912949
aF0.056514445692300797
aF0.06800615787506104
aF0.053723178803920746
aF0.07835566997528076
aF0.07213309407234192
aF0.05161552131175995
aF0.06945997476577759
aF0.051893867552280426
aF0.05886208638548851
aF0.05779343470931053
aF0.057222288101911545
aF0.06897640228271484
aF0.05815067142248154
aF0.07891666889190674
aF0.061847805976867676
aF0.08246506750583649
aF0.051886629313230515
aF0.05777880176901817
aF0.092462919652462
aF0.06985436379909515
aF0.06425507366657257
aF0.0879947766661644
aF0.04765602573752403
aF0.0651945024728775
aF0.0587201751768589
aF0.06651938706636429
aF0.07277874648571014
aF0.06062403693795204
aF0.07090863585472107
aF0.0753815621137619
aF0.058196429163217545
aF0.0580822192132473
aF0.06779394298791885
aF0.08433586359024048
aF0.057137854397296906
aF0.060235727578401566
aF0.0567297525703907
aF0.059451937675476074
aF0.06920506060123444
aF0.06332695484161377
aF0.07385974377393723
aF0.06181754171848297
aF0.06720419228076935
aF0.04316454753279686
aF0.06922318786382675
aF0.04556809738278389
aF0.059270214289426804
aF0.06251216679811478
aF0.0688263326883316
aF0.06227670609951019
aF0.04104122892022133
aF0.07718635350465775
aF0.05703279748558998
aF0.053748078644275665
aF0.06387167423963547
aF0.06387460231781006
aF0.062280990183353424
aF0.05943399295210838
aF0.056582219898700714
aF0.055070120841264725
aF0.06105208024382591
aF0.08171570301055908
aF0.07593441754579544
aF0.06257189810276031
aF0.07420120388269424
aF0.06526818871498108
aF0.060156457126140594
aF0.06784011423587799
aF0.06641951948404312
aF0.05917448550462723
aF0.0613647885620594
aF0.06567706912755966
aF0.053623445332050323
aF0.0650109127163887
aF0.06289049983024597
aF0.06414234638214111
aF0.0711217150092125
aF0.07287857681512833
aF0.0700220987200737
aF0.06743429601192474
aF0.05731828510761261
aF0.06892754137516022
aF0.06445398181676865
aF0.05704067647457123
aF0.07188595086336136
aF0.05873618274927139
aF0.055438265204429626
aF0.061059195548295975
aF0.05699789524078369
aF0.06663377583026886
aF0.07679162174463272
aF0.04917090758681297
aF0.0662989392876625
aF0.0697384774684906
aF0.05890816077589989
aF0.06807005405426025
aF0.05534741282463074
aF0.05206364765763283
aF0.06520065665245056
aF0.07210548222064972
aF0.06404835730791092
aF0.0771808996796608
aF0.06209048628807068
aF0.06175443157553673
aF0.06118931993842125
aF0.056863732635974884
aF0.060066696256399155
aF0.04915409907698631
aF0.057811200618743896
aF0.06648276746273041
aF0.05033129081130028
aF0.05326193943619728
aF0.06929555535316467
aF0.05752488598227501
aF0.07895128428936005
aF0.06663446128368378
aF0.04201546683907509
aF0.05968068912625313
aF0.059505395591259
aF0.05818367004394531
aF0.1082460954785347
aF0.08462896943092346
aF0.061886876821517944
aF0.08012130856513977
aF0.05314340069890022
aF0.05720939487218857
aF0.04473016783595085
aF0.0689460039138794
aF0.07013962417840958
aF0.05944007262587547
aF0.05820775032043457
aF0.07962460070848465
aF0.06910984218120575
aF0.06539130210876465
aF0.08149883151054382
aF0.07060173153877258
aF0.05361483246088028
aF0.056962836533784866
aF0.06355637311935425
aF0.06794958561658859
aF0.06250761449337006
aF0.04578491672873497
aF0.052398864179849625
aF0.05398976802825928
aF0.062446705996990204
aF0.06867936253547668
aF0.06493456661701202
aF0.04643034189939499
aF0.03645368292927742
aF0.051906831562519073
aF0.062014684081077576
aF0.05083393678069115
aF0.06534884870052338
aF0.06616435199975967
aF0.04853494465351105
aF0.06573949754238129
aF0.0658564493060112
aF0.05839430168271065
aF0.06822364032268524
aF0.06188276410102844
aF0.061903875321149826
aF0.06300698220729828
aF0.06133696809411049
aF0.05456571280956268
aF0.04454952850937843
aF0.054302431643009186
aF0.0708722248673439
aF0.06341110914945602
aF0.0497908852994442
aF0.06378936767578125
aF0.07788123190402985
aF0.05769689381122589
aF0.06391234695911407
aF0.062122657895088196
aF0.05254902318120003
aF0.06670442968606949
aF0.05784206464886665
aF0.08926967531442642
aF0.07591598480939865
aF0.044214390218257904
aF0.06383360922336578
aF0.03960161283612251
aF0.05450741574168205
aF0.06881245970726013
aF0.08537241816520691
aF0.06379334628582001
aF0.07177907228469849
aF0.07943008840084076
aF0.06868201494216919
aF0.06271741539239883
aF0.04084303230047226
aF0.04731221869587898
aF0.05487601459026337
aF0.0842975601553917
aF0.0605798102915287
aF0.08036617934703827
aF0.053989868611097336
aF0.0735321193933487
aF0.08566418290138245
aF0.07666461169719696
aF0.06522559374570847
aF0.05865377560257912
aF0.07980556786060333
aF0.06280997395515442
aF0.07899436354637146
aF0.06613334268331528
aF0.058093100786209106
aF0.04217521846294403
aF0.05033197999000549
aF0.07338844984769821
aF0.05924595519900322
aF0.0704740434885025
aF0.05362233147025108
aF0.07599343359470367
aF0.07752495259046555
aF0.05746070668101311
aF0.05733911693096161
aF0.05256754904985428
aF0.05344279110431671
aF0.07111995667219162
aF0.057810910046100616
aF0.07571224123239517
aF0.05965955927968025
aF0.05903893709182739
aF0.06259706616401672
aF0.06909772008657455
aF0.06951223313808441
aF0.06716633588075638
aF0.044904932379722595
aF0.06241573020815849
aF0.05798319727182388
aF0.06397796422243118
aF0.05473632737994194
aF0.050893329083919525
aF0.0650392398238182
aF0.060678161680698395
aF0.05385051295161247
aF0.07091425359249115
aF0.0514056570827961
aF0.07466721534729004
aF0.08092150092124939
aF0.055861469358205795
aF0.06459533423185349
aF0.05760854482650757
aF0.06401612609624863
aF0.06849439442157745
aF0.056138236075639725
aF0.06298515945672989
aF0.055170249193906784
aF0.06687453389167786
aF0.05935283377766609
aF0.054428525269031525
aF0.055631063878536224
aF0.050020746886730194
aF0.06879977881908417
aF0.059905145317316055
aF0.07711119204759598
aF0.058401115238666534
aF0.06793633848428726
aF0.06484246999025345
aF0.06276940554380417
aF0.06331899762153625
aF0.06273698061704636
aF0.06905622780323029
aF0.06359782814979553
aF0.05322805792093277
aF0.059367042034864426
aF0.07242346554994583
aF0.07154255360364914
aF0.06393853574991226
aF0.05551658198237419
aF0.059012748301029205
aF0.05558299273252487
aF0.0717662051320076
aF0.06467346847057343
aF0.06556860357522964
aF0.059123385697603226
aF0.06398556381464005
aF0.0737418457865715
aF0.05261804908514023
aF0.0629483163356781
aF0.054963719099760056
aF0.09536053240299225
aF0.08038123697042465
aF0.057733193039894104
aF0.07067323476076126
aF0.049110837280750275
aF0.0782911628484726
aF0.0733046904206276
aF0.0521448589861393
aF0.07103774696588516
aF0.05366997793316841
aF0.060582295060157776
aF0.059792812913656235
aF0.05680428445339203
aF0.06213517487049103
aF0.06192198395729065
aF0.08295390009880066
aF0.06429371237754822
aF0.07723616063594818
aF0.05309255048632622
aF0.06040288880467415
aF0.0864359512925148
aF0.06585704535245895
aF0.06079959496855736
aF0.08185466378927231
aF0.05108942836523056
aF0.06088326498866081
aF0.06110803037881851
aF0.07041355222463608
aF0.06489919126033783
aF0.0571829155087471
aF0.07325761765241623
aF0.08033157140016556
aF0.052448391914367676
aF0.05856649577617645
aF0.06734157353639603
aF0.07800710946321487
aF0.06196793168783188
aF0.06015463173389435
aF0.054992251098155975
aF0.0629824846982956
aF0.06831574440002441
aF0.06125880777835846
aF0.07052285969257355
aF0.06352215260267258
aF0.06343664228916168
aF0.047741856426000595
aF0.06946463137865067
aF0.04979600012302399
aF0.06326288729906082
aF0.06108291447162628
aF0.06933639198541641
aF0.06294650584459305
aF0.041929420083761215
aF0.07387559860944748
aF0.05210398510098457
aF0.0505930557847023
aF0.06379677355289459
aF0.057273346930742264
aF0.0610337108373642
aF0.0576738566160202
aF0.06078346073627472
aF0.052838630974292755
aF0.05771953612565994
aF0.08121920377016068
aF0.07509373873472214
aF0.06364636868238449
aF0.07410861551761627
aF0.0666871964931488
aF0.06787501275539398
aF0.06696129590272903
aF0.06903748959302902
aF0.06613302230834961
aF0.059760332107543945
aF0.06570889055728912
aF0.05074232816696167
aF0.06289411336183548
aF0.059947218745946884
aF0.06384777277708054
aF0.07371868193149567
aF0.07212251424789429
aF0.06582082062959671
aF0.06340491771697998
aF0.06244606152176857
aF0.07238434255123138
aF0.06009025499224663
aF0.05683005601167679
aF0.07548929005861282
aF0.05721154436469078
aF0.05521076172590256
aF0.05829915031790733
aF0.05953969433903694
aF0.06424761563539505
aF0.07930921763181686
aF0.044275786727666855
aF0.06634226441383362
aF0.07019937038421631
aF0.05592963099479675
aF0.06414052098989487
aF0.06381311267614365
aF0.053016114979982376
aF0.059638943523168564
aF0.07729779183864594
aF0.06277855485677719
aF0.07747509330511093
aF0.06696351617574692
aF0.06315914541482925
aF0.05884048715233803
aF0.05591895803809166
aF0.05852927267551422
aF0.04908765107393265
aF0.059737883508205414
aF0.06920208036899567
aF0.05159318447113037
aF0.05548422038555145
aF0.06857061386108398
aF0.055108923465013504
aF0.0807127058506012
aF0.06260500103235245
aF0.04386955127120018
aF0.05842725932598114
aF0.06192054599523544
aF0.05363232269883156
aF0.11408211290836334
aF0.07513878494501114
aF0.05735630914568901
aF0.0772198885679245
aF0.05588236078619957
aF0.05731877312064171
aF0.04296455532312393
aF0.06809599697589874
aF0.06772606074810028
aF0.05934905260801315
aF0.06019618734717369
aF0.08232433348894119
aF0.07376985251903534
aF0.06691164523363113
aF0.08005582541227341
aF0.06927050650119781
aF0.05831325799226761
aF0.05747447907924652
aF0.06026098132133484
aF0.06630363315343857
aF0.06279979646205902
aF0.04442901164293289
aF0.05651392042636871
aF0.05787699297070503
aF0.06298532336950302
aF0.07014612853527069
aF0.0648285374045372
aF0.04332265257835388
aF0.03458297997713089
aF0.05500530079007149
aF0.06586089730262756
aF0.055292218923568726
aF0.06893377751111984
aF0.06799039989709854
aF0.050752848386764526
aF0.07329203188419342
aF0.06875821202993393
aF0.054456308484077454
aF0.06828347593545914
aF0.06687875092029572
aF0.06462644040584564
aF0.06665750592947006
aF0.053195759654045105
aF0.0571872815489769
aF0.049781523644924164
aF0.0525125116109848
aF0.06805498898029327
aF0.06470338255167007
aF0.04654693230986595
aF0.06276626884937286
aF0.08245681971311569
aF0.052456121891736984
aF0.0642036646604538
aF0.06539128720760345
aF0.05345812439918518
aF0.06455022841691971
aF0.05775595083832741
aF0.08773549646139145
aF0.07929877936840057
aF0.04210101068019867
aF0.060002267360687256
aF0.04538450017571449
aF0.056315090507268906
aF0.06963345408439636
aF0.08266879618167877
aF0.0620298907160759
aF0.06909913569688797
aF0.07862672954797745
aF0.06692947447299957
aF0.062399692833423615
aF0.042913395911455154
aF0.042680706828832626
aF0.05358584225177765
aF0.08040302246809006
aF0.06193700432777405
aF0.08306480199098587
aF0.05146998539566994
aF0.07525009661912918
aF0.08000399172306061
aF0.0768885612487793
aF0.06812310218811035
aF0.05344521999359131
aF0.07485803961753845
aF0.061743736267089844
aF0.07634121179580688
aF0.06919281929731369
aF0.05282047763466835
aF0.046902842819690704
aF0.049418289214372635
aF0.07199753075838089
aF0.05712763965129852
aF0.0663691908121109
aF0.05434108525514603
aF0.07593019306659698
aF0.07558227330446243
aF0.05499757081270218
aF0.05615006759762764
aF0.05000597611069679
aF0.05820390582084656
aF0.07851112633943558
aF0.05278860405087471
aF0.07312475144863129
aF0.06668416410684586
aF0.05273328721523285
aF0.06332466006278992
aF0.06451010704040527
aF0.06913807988166809
aF0.06886368244886398
aF0.04290110990405083
aF0.06254005432128906
aF0.055646225810050964
aF0.058217957615852356
aF0.05334426835179329
aF0.051742374897003174
aF0.06906288862228394
aF0.056969307363033295
aF0.05108857527375221
aF0.07227110117673874
aF0.05190805718302727
aF0.07996358722448349
aF0.0812920406460762
aF0.05899205431342125
aF0.06738215684890747
aF0.055747970938682556
aF0.06344183534383774
aF0.06543441116809845
aF0.05777551233768463
aF0.06619258224964142
aF0.05226212739944458
aF0.062323831021785736
aF0.05835092067718506
aF0.052431587129831314
aF0.051211729645729065
aF0.04870879277586937
aF0.06567578762769699
aF0.060132578015327454
aF0.07638947665691376
aF0.052410244941711426
aF0.06390991806983948
aF0.06493768095970154
aF0.05919678136706352
aF0.06385190784931183
aF0.06327298283576965
aF0.07139643281698227
aF0.06777455657720566
aF0.05646725744009018
aF0.06113665923476219
aF0.07073469460010529
aF0.07272141426801682
aF0.06508389115333557
aF0.05694357305765152
aF0.05761968716979027
aF0.05123969539999962
aF0.06811991333961487
aF0.06414753943681717
aF0.0630105510354042
aF0.053134988993406296
aF0.062155742198228836
aF0.06962140649557114
aF0.05425657704472542
aF0.05789358541369438
aF0.05744672566652298
aF0.09080556035041809
aF0.07278786599636078
aF0.05761813372373581
aF0.07096129655838013
aF0.0517529621720314
aF0.07458879053592682
aF0.06677912175655365
aF0.04951421916484833
aF0.06772168725728989
aF0.05042633041739464
aF0.06252925843000412
aF0.05533503368496895
aF0.056374441832304
aF0.06391460448503494
aF0.05974014103412628
aF0.08172716945409775
aF0.06457626074552536
aF0.0809725895524025
aF0.05274819955229759
aF0.0624697245657444
aF0.08908634632825851
aF0.06819824129343033
aF0.062012966722249985
aF0.08168403804302216
aF0.05128592997789383
aF0.055365562438964844
aF0.0554124116897583
aF0.06535913795232773
aF0.07579852640628815
aF0.06084960699081421
aF0.07435205578804016
aF0.08091145008802414
aF0.0592019259929657
aF0.05556913837790489
aF0.0662713497877121
aF0.08217586576938629
aF0.061263926327228546
aF0.057071179151535034
aF0.05838693678379059
aF0.05858228728175163
aF0.06386691331863403
aF0.06261373311281204
aF0.07335299253463745
aF0.06267720460891724
aF0.06186400353908539
aF0.043977536261081696
aF0.06645099818706512
aF0.04910381883382797
aF0.060686707496643066
aF0.061460018157958984
aF0.06115973740816116
aF0.06326411664485931
aF0.040253374725580215
aF0.07107264548540115
aF0.05676382780075073
aF0.048594880849123
aF0.06205495446920395
aF0.06258350610733032
aF0.06226649135351181
aF0.05534469336271286
aF0.06178642809391022
aF0.05258457362651825
aF0.06515627354383469
aF0.08311312645673752
aF0.06747318059206009
aF0.06036795675754547
aF0.07136286795139313
aF0.06506986916065216
aF0.06565698981285095
aF0.06541647762060165
aF0.06457239389419556
aF0.06272071599960327
aF0.0618525967001915
aF0.06346526741981506
aF0.05098837986588478
aF0.06009954214096069
aF0.06112529709935188
aF0.06727458536624908
aF0.06620445102453232
aF0.07201802730560303
aF0.06152033433318138
aF0.06462201476097107
aF0.059454046189785004
aF0.07318674772977829
aF0.06424485146999359
aF0.053085844963788986
aF0.07024063169956207
aF0.057849716395139694
aF0.05449629947543144
aF0.060391027480363846
aF0.056840237230062485
aF0.06544236838817596
aF0.07467929273843765
aF0.04615354165434837
aF0.06676128506660461
aF0.07046966254711151
aF0.05773904174566269
aF0.0676489919424057
aF0.06065227836370468
aF0.04907986521720886
aF0.063919797539711
aF0.07465875893831253
aF0.059511322528123856
aF0.07752855122089386
aF0.06289388239383698
aF0.06441152840852737
aF0.05448923632502556
aF0.05771529674530029
aF0.05660131201148033
aF0.04299434646964073
aF0.05550404265522957
aF0.06780371069908142
aF0.05043822154402733
aF0.052456099539995193
aF0.06849686801433563
aF0.06272084265947342
aF0.07587502896785736
aF0.07011865824460983
aF0.04356839507818222
aF0.061882320791482925
aF0.06142955645918846
aF0.05446670949459076
aF0.10883545875549316
aF0.07527483999729156
aF0.05963321402668953
aF0.07714931666851044
aF0.054081931710243225
aF0.05748198926448822
aF0.049785394221544266
aF0.06370358169078827
aF0.06766027212142944
aF0.058143533766269684
aF0.060079947113990784
aF0.07954519242048264
aF0.07134118676185608
aF0.06885617226362228
aF0.0777096375823021
aF0.07195543497800827
aF0.053083065897226334
aF0.06315522640943527
aF0.056523170322179794
aF0.06673943251371384
aF0.0642118901014328
aF0.0439799465239048
aF0.05907287076115608
aF0.05655794218182564
aF0.06050792708992958
aF0.0705808773636818
aF0.058933623135089874
aF0.04680095240473747
aF0.0349380224943161
aF0.05710335448384285
aF0.06113726273179054
aF0.05622287839651108
aF0.06341616809368134
aF0.07118979841470718
aF0.05255058780312538
aF0.06762569397687912
aF0.06799186021089554
aF0.05825620889663696
aF0.06208931654691696
aF0.06583002954721451
aF0.06649383157491684
aF0.06658924371004105
aF0.05525631085038185
aF0.058474283665418625
aF0.041304707527160645
aF0.05160120502114296
aF0.0661226436495781
aF0.06389201432466507
aF0.05132966488599777
aF0.061437077820301056
aF0.07797428220510483
aF0.056080374866724014
aF0.063215471804142
aF0.059354543685913086
aF0.05027402564883232
aF0.06542472541332245
aF0.05807577446103096
aF0.08919797837734222
aF0.07711917161941528
aF0.045268669724464417
aF0.06493949890136719
aF0.040694478899240494
aF0.055526040494441986
aF0.0651874914765358
aF0.08295439928770065
aF0.05865829437971115
aF0.07033941149711609
aF0.0824773982167244
aF0.07124974578619003
aF0.06429664045572281
aF0.04022336006164551
aF0.04656917601823807
aF0.05341199040412903
aF0.0841941237449646
aF0.059914037585258484
aF0.07887766510248184
aF0.05025811120867729
aF0.07344475388526917
aF0.08308502286672592
aF0.07270384579896927
aF0.06959835439920425
aF0.05272315442562103
aF0.07376375794410706
aF0.06611187011003494
aF0.07504837214946747
aF0.07017630338668823
aF0.056821826845407486
aF0.04502464458346367
aF0.05014324188232422
aF0.07680905610322952
aF0.057993099093437195
aF0.06399999558925629
aF0.054526716470718384
aF0.0760955959558487
aF0.07927283644676208
aF0.05178678035736084
aF0.05427226424217224
aF0.050353702157735825
aF0.05811678618192673
aF0.06886126101016998
aF0.05311981588602066
aF0.07775719463825226
aF0.06264908611774445
aF0.056777603924274445
aF0.06610563397407532
aF0.07031004875898361
aF0.06223936378955841
aF0.06526964902877808
aF0.04257192462682724
aF0.062224630266427994
aF0.05522710457444191
aF0.06538617610931396
aF0.059157684445381165
aF0.05649295449256897
aF0.06976284086704254
aF0.059617821127176285
aF0.0527789369225502
aF0.06779374927282333
aF0.053160883486270905
aF0.07512039691209793
aF0.0810147225856781
aF0.05798964947462082
aF0.06495555490255356
aF0.05658382177352905
aF0.0678263008594513
aF0.06663767993450165
aF0.056993432343006134
aF0.06103590875864029
aF0.05043670907616615
aF0.06436282396316528
aF0.06354087591171265
aF0.04724005609750748
aF0.053355202078819275
aF0.050073571503162384
aF0.06738545745611191
aF0.05739467591047287
aF0.07477635890245438
aF0.05453891307115555
aF0.0611797533929348
aF0.06637561321258545
aF0.05848906561732292
aF0.06817971169948578
aF0.06491851061582565
aF0.07013102620840073
aF0.0654137134552002
aF0.049378618597984314
aF0.05857090651988983
aF0.07142992317676544
aF0.07018395513296127
aF0.06515848636627197
aF0.05136054754257202
aF0.055492471903562546
aF0.051746666431427
aF0.06908955425024033
aF0.06054065749049187
aF0.07290131598711014
aF0.060857102274894714
aF0.062184516340494156
aF0.06838390231132507
aF0.05454932153224945
aF0.060534510761499405
aF0.05833597853779793
aF0.09053119271993637
aF0.07251056283712387
aF0.06040741503238678
aF0.069623202085495
aF0.051700394600629807
aF0.07648755609989166
aF0.06701444834470749
aF0.051200881600379944
aF0.07021438330411911
aF0.053947512060403824
aF0.05709682032465935
aF0.05525186285376549
aF0.05619724094867706
aF0.06226888671517372
aF0.06091199815273285
aF0.07600894570350647
aF0.06223490461707115
aF0.07595842331647873
aF0.04987232759594917
aF0.05702361464500427
aF0.08316662162542343
aF0.06786763668060303
aF0.06022012606263161
aF0.08282073587179184
aF0.04951811954379082
aF0.05846928060054779
aF0.05872160568833351
aF0.07190892100334167
aF0.06770744174718857
aF0.05530301854014397
aF0.0736241340637207
aF0.07856974005699158
aF0.052783332765102386
aF0.05800730735063553
aF0.06887377798557281
aF0.08543478697538376
aF0.05372877046465874
aF0.05815451964735985
aF0.059172116219997406
aF0.06447051465511322
aF0.07268884778022766
aF0.060700416564941406
aF0.07417386770248413
aF0.05809028819203377
aF0.062117867171764374
aF0.04380267858505249
aF0.06738825887441635
aF0.049419645220041275
aF0.05927073955535889
aF0.0591094009578228
aF0.06488008052110672
aF0.06363282352685928
aF0.03824876993894577
aF0.07602385431528091
aF0.05697948858141899
aF0.055176347494125366
aF0.06697209179401398
aF0.06125926971435547
aF0.0614110566675663
aF0.05571657419204712
aF0.05912601575255394
aF0.04920521751046181
aF0.06026352569460869
aF0.08618959039449692
aF0.07431197166442871
aF0.06375657767057419
aF0.07403537631034851
aF0.0656985491514206
aF0.06561028957366943
aF0.06702631711959839
aF0.06843053549528122
aF0.06094828248023987
aF0.059805143624544144
aF0.06418251246213913
aF0.05226844921708107
aF0.0623205304145813
aF0.06251437216997147
aF0.059429001063108444
aF0.0707193911075592
aF0.07478801161050797
aF0.06295834481716156
aF0.06616198271512985
aF0.05749838799238205
aF0.07503914833068848
aF0.062335703521966934
aF0.05387511104345322
aF0.07362877577543259
aF0.06082230433821678
aF0.04837925359606743
aF0.05748555436730385
aF0.05917145311832428
aF0.06680739670991898
aF0.07588763535022736
aF0.04557167738676071
aF0.06155690550804138
aF0.06823886185884476
aF0.05633730813860893
aF0.06436005979776382
aF0.0598592571914196
aF0.05307270213961601
aF0.05944935232400894
aF0.07440747320652008
aF0.060622069984674454
aF0.0735417902469635
aF0.06429638713598251
aF0.0640581026673317
aF0.05639425292611122
aF0.05446656048297882
aF0.05593859776854515
aF0.0448317751288414
aF0.05967129021883011
aF0.0651334896683693
aF0.04887042194604874
aF0.04947790130972862
aF0.0665883868932724
aF0.058746207505464554
aF0.07686033844947815
aF0.0670800656080246
aF0.041671983897686005
aF0.06209849938750267
aF0.06322887539863586
aF0.06007738411426544
aF0.10539116710424423
aF0.0790942907333374
aF0.054209936410188675
aF0.07492057234048843
aF0.05752522125840187
aF0.054889779537916183
aF0.04780764505267143
aF0.06922297924757004
aF0.06064435839653015
aF0.06167031452059746
aF0.05915450304746628
aF0.07925738394260406
aF0.0685349553823471
aF0.06698419898748398
aF0.0755705013871193
aF0.07155092060565948
aF0.051277145743370056
aF0.06106558442115784
aF0.059010639786720276
aF0.06538484245538712
aF0.0699315071105957
aF0.04621933773159981
aF0.05688737705349922
aF0.05235740542411804
aF0.05853685736656189
aF0.07130919396877289
aF0.05664405599236488
aF0.04592939093708992
aF0.03719284012913704
aF0.05479618161916733
aF0.05809573456645012
aF0.05300348997116089
aF0.06723105907440186
aF0.0704333558678627
aF0.0496605709195137
aF0.06824488192796707
aF0.06949226558208466
aF0.05412669479846954
aF0.06873452663421631
aF0.06580518931150436
aF0.06475243717432022
aF0.06530027091503143
aF0.052231743931770325
aF0.056752197444438934
aF0.04450429975986481
aF0.05004124715924263
aF0.06639999151229858
aF0.06381112337112427
aF0.046456314623355865
aF0.0674123466014862
aF0.07625322788953781
aF0.0548584908246994
aF0.06673336029052734
aF0.06007961556315422
aF0.05344328284263611
aF0.06448809802532196
aF0.058316972106695175
aF0.08765377104282379
aF0.0717809721827507
aF0.04104636237025261
aF0.06474601477384567
aF0.04229004681110382
aF0.051383521407842636
aF0.07210559397935867
aF0.07612430304288864
aF0.06438753008842468
aF0.07408846914768219
aF0.08210605382919312
aF0.06891531497240067
aF0.06350719928741455
aF0.04327552765607834
aF0.04964220151305199
aF0.05717884749174118
aF0.08083520084619522
aF0.062453653663396835
aF0.08210858702659607
aF0.05387880653142929
aF0.07550431787967682
aF0.08190567046403885
aF0.07409561425447464
aF0.06532914191484451
aF0.05446092039346695
aF0.07438178360462189
aF0.06138075888156891
aF0.0746493712067604
aF0.07286789268255234
aF0.05764011666178703
aF0.046911559998989105
aF0.04997126758098602
aF0.06713619083166122
aF0.057668425142765045
aF0.06555309146642685
aF0.05575685203075409
aF0.07252921164035797
aF0.07664017379283905
aF0.05640023201704025
aF0.051621127873659134
aF0.05853063985705376
aF0.05800541862845421
aF0.07024946808815002
aF0.06039019674062729
aF0.0689542144536972
aF0.06366288661956787
aF0.05316890403628349
aF0.061627425253391266
aF0.06654097139835358
aF0.06505940854549408
aF0.06901904195547104
aF0.04565494507551193
aF0.06435037404298782
aF0.056793954223394394
aF0.0635034367442131
aF0.05703277885913849
aF0.05319216474890709
aF0.06917623430490494
aF0.05536191165447235
aF0.052578404545784
aF0.06956911087036133
aF0.0497698038816452
aF0.07303740084171295
aF0.07608719915151596
aF0.05717086419463158
aF0.06915684789419174
aF0.05493508651852608
aF0.06372164934873581
aF0.06785179674625397
aF0.05376783758401871
aF0.06431471556425095
aF0.05465185269713402
aF0.06344688683748245
aF0.055839210748672485
aF0.05167143791913986
aF0.05525029078125954
aF0.046435028314590454
aF0.06474678218364716
aF0.06157943606376648
aF0.07536530494689941
aF0.054095812141895294
aF0.05855429917573929
aF0.06471343338489532
aF0.06167284771800041
aF0.06714243441820145
aF0.0634397342801094
aF0.06740039587020874
aF0.06961475312709808
aF0.05695179104804993
aF0.05958562716841698
aF0.07056153565645218
aF0.07028952986001968
aF0.06561453640460968
aF0.05440083146095276
aF0.06308635324239731
aF0.052239809185266495
aF0.06944220513105392
aF0.06371377408504486
aF0.06979686766862869
aF0.05570724606513977
aF0.06143654137849808
aF0.07100483775138855
aF0.052103832364082336
aF0.06178829073905945
aF0.05272415652871132
aF0.08480421453714371
aF0.07582544535398483
aF0.05646919086575508
aF0.06860595941543579
aF0.055380962789058685
aF0.07427294552326202
aF0.06624278426170349
aF0.04938941076397896
aF0.06955888122320175
aF0.05065029859542847
aF0.05599859356880188
aF0.058641303330659866
aF0.05780871957540512
aF0.06949017941951752
aF0.06093338131904602
aF0.08028408885002136
aF0.05821486935019493
aF0.07826648652553558
aF0.05321061238646507
aF0.05987526848912239
aF0.08485758304595947
aF0.06604353338479996
aF0.06094310060143471
aF0.08255758136510849
aF0.0506611168384552
aF0.059818610548973083
aF0.05637142434716225
aF0.07153317332267761
aF0.0717700719833374
aF0.05650721490383148
aF0.07144344598054886
aF0.0771370381116867
aF0.05113580822944641
aF0.057053182274103165
aF0.06598237156867981
aF0.0823361799120903
aF0.05877472460269928
aF0.054198551923036575
aF0.056366197764873505
aF0.061695609241724014
aF0.06628118455410004
aF0.0628388375043869
aF0.0732051432132721
aF0.06148016080260277
aF0.06528071314096451
aF0.04359758645296097
aF0.06380894780158997
aF0.04686881601810455
aF0.053829800337553024
aF0.058920569717884064
aF0.06300561130046844
aF0.06140104681253433
aF0.04041081294417381
aF0.07312653958797455
aF0.0567682720720768
aF0.051128827035427094
aF0.06343794614076614
aF0.05997398495674133
aF0.06037161871790886
aF0.058471765369176865
aF0.05848811939358711
aF0.04883807525038719
aF0.06412176787853241
aF0.0848376676440239
aF0.07399793714284897
aF0.05935993790626526
aF0.07164134085178375
aF0.06371685117483139
aF0.06385684013366699
aF0.06749086081981659
aF0.06927476823329926
aF0.06078198552131653
aF0.058937739580869675
aF0.06622031331062317
aF0.05586274713277817
aF0.0593135841190815
aF0.06289545446634293
aF0.06205117702484131
aF0.06926121562719345
aF0.07436362653970718
aF0.06391969323158264
aF0.06227139011025429
aF0.053173575550317764
aF0.07346887141466141
aF0.06254780292510986
aF0.055519647896289825
aF0.07209883630275726
aF0.0577540248632431
aF0.051957812160253525
aF0.06183198094367981
aF0.0592009462416172
aF0.06767415255308151
aF0.07574470341205597
aF0.042986467480659485
aF0.06475064158439636
aF0.06442984938621521
aF0.05659016966819763
aF0.06556040048599243
aF0.056715045124292374
aF0.055517181754112244
aF0.06200161948800087
aF0.06780404597520828
aF0.06219574436545372
aF0.07597526907920837
aF0.060192253440618515
aF0.06356246769428253
aF0.055945005267858505
aF0.05616876110434532
aF0.05767407640814781
aF0.044047702103853226
aF0.058039966970682144
aF0.06773535162210464
aF0.05164848640561104
aF0.05320540443062782
aF0.06711823493242264
aF0.0585198849439621
aF0.08076697587966919
aF0.06266508251428604
aF0.04448835179209709
aF0.06421752274036407
aF0.06251294910907745
aF0.056191641837358475
aF0.1090293750166893
aF0.07453278452157974
aF0.0579448938369751
aF0.08233724534511566
aF0.056561294943094254
aF0.05766147002577782
aF0.04453602060675621
aF0.07085472345352173
aF0.06506454199552536
aF0.05608077719807625
aF0.059455566108226776
aF0.07556908577680588
aF0.06967609375715256
aF0.06453103572130203
aF0.07669729739427567
aF0.07065488398075104
aF0.05149596184492111
aF0.061744190752506256
aF0.056849852204322815
aF0.06480249762535095
aF0.06468576937913895
aF0.04627249762415886
aF0.05835121497511864
aF0.05228276923298836
aF0.05860353633761406
aF0.07503818720579147
aF0.06103139370679855
aF0.04727913439273834
aF0.03338947892189026
aF0.055321644991636276
aF0.0601813867688179
aF0.052720073610544205
aF0.06676167249679565
aF0.06544792652130127
aF0.04812687262892723
aF0.06962133198976517
aF0.06618946045637131
aF0.05398859828710556
aF0.0633971318602562
aF0.06185763329267502
aF0.06416520476341248
aF0.06910418719053268
aF0.05634693056344986
aF0.05713179334998131
aF0.042614445090293884
aF0.053467318415641785
aF0.07058391720056534
aF0.06620123982429504
aF0.0481494665145874
aF0.05698668584227562
aF0.07222151756286621
aF0.057630497962236404
aF0.05840076133608818
aF0.05552808940410614
aF0.05097188800573349
aF0.06516217440366745
aF0.06008802726864815
aF0.08426997065544128
aF0.07236745208501816
aF0.0385613813996315
aF0.06420344114303589
aF0.04195401072502136
aF0.053459905087947845
aF0.06884540617465973
aF0.08176007866859436
aF0.06462270766496658
aF0.07340662181377411
aF0.08012107759714127
aF0.07096835225820541
aF0.05807613953948021
aF0.041084133088588715
aF0.04493924230337143
aF0.05372597277164459
aF0.07599631696939468
aF0.06082763522863388
aF0.08034297078847885
aF0.055912893265485764
aF0.07474812120199203
aF0.08178643137216568
aF0.07441018521785736
aF0.06725876033306122
aF0.05523010715842247
aF0.07121507078409195
aF0.06312354654073715
aF0.0702013373374939
aF0.06793735176324844
aF0.05791163817048073
aF0.04795844480395317
aF0.045982830226421356
aF0.07240463048219681
aF0.0636640414595604
aF0.06684970110654831
aF0.05447306111454964
aF0.07327660918235779
aF0.07867806404829025
aF0.05886031687259674
aF0.05561012029647827
aF0.05163739249110222
aF0.05675915628671646
aF0.07481864839792252
aF0.05760563164949417
aF0.07655118405818939
aF0.056298840790987015
aF0.05598769336938858
aF0.06471747905015945
aF0.06329897046089172
aF0.06600020825862885
aF0.06605363637208939
aF0.04503253102302551
aF0.059174805879592896
aF0.05761327967047691
aF0.06006546691060066
aF0.053961969912052155
aF0.05539298057556152
aF0.07106535136699677
aF0.05712617561221123
aF0.04887649789452553
aF0.07012709230184555
aF0.04385524243116379
aF0.0729946717619896
aF0.08137281239032745
aF0.057056114077568054
aF0.0711720883846283
aF0.056531134992837906
aF0.06273157894611359
aF0.06585967540740967
aF0.05481981113553047
aF0.06553840637207031
aF0.05075674131512642
aF0.06435279548168182
aF0.059401605278253555
aF0.05125975236296654
aF0.05213626101613045
aF0.04791494458913803
aF0.0636337473988533
aF0.05849217250943184
aF0.07981180399656296
aF0.057577937841415405
aF0.0633855015039444
aF0.062364835292100906
aF0.058708854019641876
aF0.06784811615943909
aF0.06318721920251846
aF0.06906794011592865
aF0.06855206191539764
aF0.054057054221630096
aF0.0540841706097126
aF0.0698796883225441
aF0.06872977316379547
aF0.06411726772785187
aF0.0590161569416523
aF0.05500778928399086
aF0.051027245819568634
aF0.06810685247182846
aF0.06069178879261017
aF0.06911464780569077
aF0.05806279927492142
aF0.06471693515777588
aF0.06528399139642715
aF0.05251004174351692
aF0.06317316740751266
aF0.05421926826238632
aF0.09185662865638733
aF0.07261975109577179
aF0.057844191789627075
aF0.06958318501710892
aF0.0489453487098217
aF0.0723918005824089
aF0.06603927910327911
aF0.04878755286335945
aF0.07047377526760101
aF0.05141163244843483
aF0.06081893667578697
aF0.059254344552755356
aF0.056026436388492584
aF0.06655701249837875
aF0.05585223436355591
aF0.07850058376789093
aF0.06056017801165581
aF0.0778127983212471
aF0.051068015396595
aF0.05788605660200119
aF0.0853586420416832
aF0.06723865121603012
aF0.06088218092918396
aF0.08666437119245529
aF0.05127913877367973
aF0.05684005469083786
aF0.05692632496356964
aF0.0631692185997963
aF0.07240813970565796
aF0.055107228457927704
aF0.06704633682966232
aF0.07589545100927353
aF0.05320072919130325
aF0.05870227515697479
aF0.06591048091650009
aF0.07800373435020447
aF0.056081246584653854
aF0.05468861013650894
aF0.053946997970342636
aF0.05885838717222214
aF0.06738568842411041
aF0.05928467959165573
aF0.06961346417665482
aF0.06100764870643616
aF0.060775190591812134
aF0.04796454310417175
aF0.06566824018955231
aF0.04531272500753403
aF0.05953100323677063
aF0.061810754239559174
aF0.06571941822767258
aF0.06538528949022293
aF0.038197338581085205
aF0.07067959755659103
aF0.05686711147427559
aF0.055708155035972595
aF0.0616266168653965
aF0.06200069189071655
aF0.05729953572154045
aF0.05783771350979805
aF0.05779014527797699
aF0.05142059177160263
aF0.060815002769231796
aF0.07772233337163925
aF0.07074858993291855
aF0.06263501942157745
aF0.07272852212190628
aF0.06390044093132019
aF0.06209075450897217
aF0.06676433235406876
aF0.07071832567453384
aF0.06568984687328339
aF0.0613115020096302
aF0.0700611099600792
aF0.05028236284852028
aF0.06082286313176155
aF0.06327841430902481
aF0.06174178421497345
aF0.06976489722728729
aF0.07174038141965866
aF0.06517738848924637
aF0.06336433440446854
aF0.0532049685716629
aF0.07122039049863815
aF0.05907372757792473
aF0.056598614901304245
aF0.07062297314405441
aF0.05593413487076759
aF0.053083207458257675
aF0.05768069252371788
aF0.0580955445766449
aF0.05812929943203926
aF0.07320834696292877
aF0.046374280005693436
aF0.06838404387235641
aF0.06703072041273117
aF0.05701572075486183
aF0.0634860023856163
aF0.054819606244564056
aF0.0514603853225708
aF0.057422004640102386
aF0.07325722277164459
aF0.059459611773490906
aF0.0733134001493454
aF0.06320036202669144
aF0.06134222447872162
aF0.05591052398085594
aF0.056146204471588135
aF0.059449099004268646
aF0.04402119666337967
aF0.05584792420268059
aF0.0659496933221817
aF0.04880528897047043
aF0.05182826146483421
aF0.0678912028670311
aF0.057881180197000504
aF0.0744750127196312
aF0.06719906628131866
aF0.04035278782248497
aF0.06374719738960266
aF0.05685745179653168
aF0.055607035756111145
aF0.10722595453262329
aF0.07718800008296967
aF0.05654522031545639
aF0.07410433143377304
aF0.055561382323503494
aF0.05375145375728607
aF0.0443013533949852
aF0.07040516287088394
aF0.06650387495756149
aF0.05765986070036888
aF0.05872911214828491
aF0.08005466312170029
aF0.07039466500282288
aF0.06636757403612137
aF0.07692813128232956
aF0.06703391671180725
aF0.04978116974234581
aF0.057146113365888596
aF0.0605153888463974
aF0.0616757795214653
aF0.06372672319412231
aF0.04613262414932251
aF0.05806593969464302
aF0.05140833929181099
aF0.05802638456225395
aF0.06625714153051376
aF0.06249217689037323
aF0.046365633606910706
aF0.036383140832185745
aF0.050811536610126495
aF0.06257776916027069
aF0.053746115416288376
aF0.06569629162549973
aF0.06641999632120132
aF0.047703467309474945
aF0.06985792517662048
aF0.06467000395059586
aF0.057047247886657715
aF0.06339601427316666
aF0.0633828192949295
aF0.06539721041917801
aF0.06341898441314697
aF0.055836036801338196
aF0.05543910339474678
aF0.04291863739490509
aF0.050633858889341354
aF0.06771352887153625
aF0.062436796724796295
aF0.049337971955537796
aF0.059281427413225174
aF0.07818200439214706
aF0.0576779842376709
aF0.05833429470658302
aF0.05804647505283356
aF0.046573538333177567
aF0.06231185793876648
aF0.05458948016166687
aF0.0857246071100235
aF0.0732748880982399
aF0.04184676706790924
aF0.06648912280797958
aF0.04026154428720474
aF0.0510498471558094
aF0.07094559073448181
aF0.07517925649881363
aF0.0597645565867424
aF0.07248188555240631
aF0.07783383876085281
aF0.06972725689411163
aF0.05796048045158386
aF0.04388745501637459
aF0.04576569050550461
aF0.05320342630147934
aF0.08034013956785202
aF0.05926536023616791
aF0.07781057059764862
aF0.05535166338086128
aF0.07133592665195465
aF0.0837576612830162
aF0.07576467096805573
aF0.06787281483411789
aF0.055130310356616974
aF0.0731421709060669
aF0.060276664793491364
aF0.07573329657316208
aF0.0722610354423523
aF0.056271400302648544
aF0.04557857662439346
aF0.047622717916965485
aF0.07227649539709091
aF0.053306326270103455
aF0.063421331346035
aF0.053711701184511185
aF0.07482996582984924
aF0.0770801529288292
aF0.05582118779420853
aF0.05626703053712845
aF0.05300120636820793
aF0.05765492841601372
aF0.07432292401790619
aF0.053755681961774826
aF0.07356675714254379
aF0.06447414308786392
aF0.05490997061133385
aF0.06359253823757172
aF0.06300349533557892
aF0.06531202048063278
aF0.06584402173757553
aF0.04495561867952347
aF0.06316553801298141
aF0.05947279930114746
aF0.05868198722600937
aF0.05691324546933174
aF0.05226624384522438
aF0.0683782771229744
aF0.056656621396541595
aF0.050394002348184586
aF0.07278814166784286
aF0.04649268463253975
aF0.07224462181329727
aF0.07930228114128113
aF0.05712705850601196
aF0.06527663767337799
aF0.06190045177936554
aF0.0684140995144844
aF0.06523638963699341
aF0.058739159256219864
aF0.062017522752285004
aF0.05136031284928322
aF0.06499917060136795
aF0.05966903641819954
aF0.04913235828280449
aF0.05114405229687691
aF0.04786659777164459
aF0.06679844111204147
aF0.060856908559799194
aF0.07598348706960678
aF0.05291217938065529
aF0.06258225440979004
aF0.06320451945066452
aF0.05588909611105919
aF0.06371196359395981
aF0.06583381444215775
aF0.06976380199193954
aF0.06598791480064392
aF0.05686398595571518
aF0.05884059518575668
aF0.06793845444917679
aF0.06722018867731094
aF0.06642857193946838
aF0.05298725515604019
aF0.057315997779369354
aF0.052908800542354584
aF0.06641554832458496
aF0.0662635862827301
aF0.06601423770189285
aF0.05329570919275284
aF0.06213001906871796
aF0.06840911507606506
aF0.05277015268802643
aF0.06003155559301376
aF0.0552072636783123
aF0.09565984457731247
aF0.07491183280944824
aF0.06087562069296837
aF0.06633378565311432
aF0.049544744193553925
aF0.07188427448272705
aF0.0683395117521286
aF0.05266255885362625
aF0.06655200570821762
aF0.05402412265539169
aF0.05275110527873039
aF0.05641642585396767
aF0.05635911971330643
aF0.06359844654798508
aF0.059873051941394806
aF0.08015087246894836
aF0.05733826756477356
aF0.07700655609369278
aF0.0499834381043911
aF0.056940171867609024
aF0.08469189703464508
aF0.06466791033744812
aF0.05917607247829437
aF0.07981795072555542
aF0.04855918511748314
aF0.06095964461565018
aF0.05735801160335541
aF0.06672462821006775
aF0.07174594700336456
aF0.05692595988512039
aF0.0654592365026474
aF0.06918821483850479
aF0.05020485818386078
aF0.05659141764044762
aF0.06528472900390625
aF0.08461988717317581
aF0.058524008840322495
aF0.058502957224845886
aF0.057256363332271576
aF0.05450572445988655
aF0.06478161364793777
aF0.059098392724990845
aF0.07331053912639618
aF0.056719645857810974
aF0.06979799270629883
aF0.04481617733836174
aF0.06614303588867188
aF0.04303398355841637
aF0.0583958625793457
aF0.06265202909708023
aF0.0631488710641861
aF0.0611727349460125
aF0.03524386137723923
aF0.0756138414144516
aF0.05756538733839989
aF0.05102386325597763
aF0.058558981865644455
aF0.0560956634581089
aF0.0608520433306694
aF0.05673188716173172
aF0.059402331709861755
aF0.049082979559898376
aF0.058612629771232605
aF0.08269580453634262
aF0.07652024924755096
aF0.061692964285612106
aF0.07505228370428085
aF0.06799107044935226
aF0.06472358107566833
aF0.06766603887081146
aF0.06519825011491776
aF0.05804230645298958
aF0.05972439795732498
aF0.06538006663322449
aF0.05291968956589699
aF0.05827261880040169
aF0.06231612712144852
aF0.06096745282411575
aF0.07417132705450058
aF0.06990160048007965
aF0.06577397882938385
aF0.05908422917127609
aF0.05797037482261658
aF0.07026282697916031
aF0.06377002596855164
aF0.05219877138733864
aF0.07073312252759933
aF0.05633155629038811
aF0.05554419010877609
aF0.058394890278577805
aF0.05592186003923416
aF0.06524335592985153
aF0.07553237676620483
aF0.049434781074523926
aF0.06449222564697266
aF0.0660262331366539
aF0.054402656853199005
aF0.06741126626729965
aF0.055873848497867584
aF0.04710395261645317
aF0.058782707899808884
aF0.07401426881551743
aF0.05757288262248039
aF0.07348215579986572
aF0.06126083806157112
aF0.06428979337215424
aF0.054575566202402115
aF0.05462345480918884
aF0.05706610903143883
aF0.04253523051738739
aF0.057433705776929855
aF0.06683210283517838
aF0.04744015634059906
aF0.051068227738142014
aF0.06339044123888016
aF0.058166857808828354
aF0.07502269744873047
aF0.06564759463071823
aF0.03821370750665665
aF0.058187972754240036
aF0.0602402463555336
aF0.05336201936006546
aF0.10807205736637115
aF0.07452574372291565
aF0.06044425815343857
aF0.08247407525777817
aF0.050415847450494766
aF0.0573468953371048
aF0.04507674276828766
aF0.06935318559408188
aF0.06445148587226868
aF0.056021396070718765
aF0.05658847466111183
aF0.07644668966531754
aF0.06587334722280502
aF0.07030891627073288
aF0.07566168159246445
aF0.07459326833486557
aF0.050076693296432495
aF0.06188449636101723
aF0.06048905476927757
aF0.065772145986557
aF0.06311539560556412
aF0.04576510563492775
aF0.05875851586461067
aF0.054314278066158295
aF0.059652674943208694
aF0.06798647344112396
aF0.06062741577625275
aF0.041577331721782684
aF0.034828051924705505
aF0.04907780513167381
aF0.059616569429636
aF0.051942963153123856
aF0.06663678586483002
aF0.06409205496311188
aF0.049352120608091354
aF0.0681476891040802
aF0.06337374448776245
aF0.052937936037778854
aF0.06358130276203156
aF0.0645497739315033
aF0.0639931857585907
aF0.06753309816122055
aF0.052916403859853745
aF0.056615836918354034
aF0.04173392429947853
aF0.04994204640388489
aF0.06540168821811676
aF0.062248557806015015
aF0.04640262573957443
aF0.05822736769914627
aF0.07881040126085281
aF0.05900300294160843
aF0.06139153614640236
aF0.057807303965091705
aF0.048717521131038666
aF0.06252525746822357
aF0.06048721820116043
aF0.09142832458019257
aF0.0698968842625618
aF0.042332664132118225
aF0.06350982934236526
aF0.04049006104469299
aF0.05228904262185097
aF0.07131806761026382
aF0.07445570826530457
aF0.05943211168050766
aF0.06865384429693222
aF0.07815980911254883
aF0.06797945499420166
aF0.06419650465250015
aF0.042153455317020416
aF0.04476325213909149
aF0.052094217389822006
aF0.07934635877609253
aF0.06103434041142464
aF0.0755523070693016
aF0.04996723681688309
aF0.07251065224409103
aF0.07804305851459503
aF0.07257609069347382
aF0.06323347240686417
aF0.055855683982372284
aF0.07164730876684189
aF0.05981345474720001
aF0.07268119603395462
aF0.06906083226203918
aF0.057728830724954605
aF0.04858613759279251
aF0.0485537089407444
aF0.07055085897445679
aF0.06147286668419838
aF0.06402429193258286
aF0.057979874312877655
aF0.07465627044439316
aF0.07456675171852112
aF0.053331512957811356
aF0.0546591691672802
aF0.05299307033419609
aF0.05768302083015442
aF0.07452993094921112
aF0.054247740656137466
aF0.07687151432037354
aF0.059647087007761
aF0.05353505536913872
aF0.06706180423498154
aF0.06776673346757889
aF0.06144212558865547
aF0.06286291033029556
aF0.04093850404024124
aF0.05829807370901108
aF0.05655636265873909
aF0.05922272428870201
aF0.05369136109948158
aF0.050612613558769226
aF0.07374794781208038
aF0.05502952262759209
aF0.04932979494333267
aF0.06991257518529892
aF0.04749218747019768
aF0.07229752093553543
aF0.07848411798477173
aF0.059439580887556076
aF0.06466836482286453
aF0.055514585226774216
aF0.06733162701129913
aF0.06428767740726471
aF0.05354742333292961
aF0.061495792120695114
aF0.05597278103232384
aF0.06292974948883057
aF0.0565505214035511
aF0.049766115844249725
aF0.053601011633872986
aF0.044711410999298096
aF0.06273836642503738
aF0.058653831481933594
aF0.07792608439922333
aF0.05314904451370239
aF0.05704549700021744
aF0.06257667392492294
aF0.058302588760852814
aF0.06999775022268295
aF0.06228943169116974
aF0.06692798435688019
aF0.06813337653875351
aF0.04958063364028931
aF0.059931401163339615
aF0.07016149908304214
aF0.07040863484144211
aF0.06328044831752777
aF0.0488179549574852
aF0.05656687542796135
aF0.049351491034030914
aF0.06641171872615814
aF0.06389489769935608
aF0.07067271322011948
aF0.05114569514989853
aF0.06233051419258118
aF0.06451056152582169
aF0.053737178444862366
aF0.0618031844496727
aF0.055918674916028976
aF0.09193014353513718
aF0.07064937800168991
aF0.057716403156518936
aF0.0718570351600647
aF0.04930882528424263
aF0.07379352301359177
aF0.06779783964157104
aF0.05005767568945885
aF0.0685182437300682
aF0.05316098406910896
aF0.059347666800022125
aF0.05707187578082085
aF0.058527909219264984
aF0.061775874346494675
aF0.05624711513519287
aF0.07466880232095718
aF0.05833614617586136
aF0.07227247208356857
aF0.04881398752331734
aF0.056026097387075424
aF0.08692077547311783
aF0.06402339041233063
aF0.06304647028446198
aF0.07899954915046692
aF0.047341786324977875
aF0.059582747519016266
aF0.05238109081983566
aF0.06484769284725189
aF0.06806346774101257
aF0.05521779507398605
aF0.0757029801607132
aF0.07330718636512756
aF0.05431617423892021
aF0.05589250847697258
aF0.06727799028158188
aF0.08155027776956558
aF0.05853454768657684
aF0.05976807326078415
aF0.05262105539441109
aF0.05737418308854103
aF0.06925422698259354
aF0.0609230101108551
aF0.0744064524769783
aF0.06312635540962219
aF0.06098257005214691
aF0.04502135515213013
aF0.06647327542304993
aF0.04643445834517479
aF0.05552620068192482
aF0.06065361946821213
aF0.061037369072437286
aF0.06409269571304321
aF0.03982342407107353
aF0.07353425770998001
aF0.061319708824157715
aF0.05203470587730408
aF0.06065613403916359
aF0.05696165934205055
aF0.06325752288103104
aF0.05498433858156204
aF0.055663708597421646
aF0.044428516179323196
aF0.0588277131319046
aF0.07925518602132797
aF0.06899692118167877
aF0.06540283560752869
aF0.07324635982513428
aF0.06322173774242401
aF0.05952736735343933
aF0.06787105649709702
aF0.0698438510298729
aF0.06035059690475464
aF0.057336121797561646
aF0.06563418358564377
aF0.051694728434085846
aF0.05978555232286453
aF0.059969618916511536
aF0.06284413486719131
aF0.06850769370794296
aF0.07181933522224426
aF0.061404164880514145
aF0.06435291469097137
aF0.05544361099600792
aF0.06740499287843704
aF0.060057058930397034
aF0.05480450764298439
aF0.0773804783821106
aF0.05581621080636978
aF0.052290841937065125
aF0.05884062126278877
aF0.05879931524395943
aF0.06473731249570847
aF0.07629316300153732
aF0.04536062851548195
aF0.06298916786909103
aF0.06995454430580139
aF0.056279901415109634
aF0.0638524666428566
aF0.06016802042722702
aF0.0486595593392849
aF0.059895001351833344
aF0.0740509182214737
aF0.06155170500278473
aF0.0749611034989357
aF0.06258101016283035
aF0.06045062467455864
aF0.05283205211162567
aF0.05548558384180069
aF0.057575732469558716
aF0.04306966811418533
aF0.057008516043424606
aF0.06743238866329193
aF0.04766886681318283
aF0.05238188058137894
aF0.06620113551616669
aF0.057454533874988556
aF0.07325451821088791
aF0.06328640878200531
aF0.04120829701423645
aF0.05920715630054474
aF0.06065914407372475
aF0.05465925857424736
aF0.10720128566026688
aF0.07599128782749176
aF0.05541422590613365
aF0.07560854405164719
aF0.05498646944761276
aF0.05713948979973793
aF0.045879267156124115
aF0.06802977621555328
aF0.06467045098543167
aF0.058289602398872375
aF0.06336870789527893
aF0.07632387429475784
aF0.06912555545568466
aF0.06623874604701996
aF0.07405698299407959
aF0.07206796854734421
aF0.04885699599981308
aF0.05608110874891281
aF0.055332865566015244
aF0.06401212513446808
aF0.06580906361341476
aF0.04446292668581009
aF0.058245930820703506
aF0.05388190224766731
aF0.0612381175160408
aF0.06842942535877228
aF0.055483706295490265
aF0.04107749089598656
aF0.03349662572145462
aF0.056863777339458466
aF0.06256359070539474
aF0.053966373205184937
aF0.06472032517194748
aF0.06528814882040024
aF0.05084896460175514
aF0.0663655698299408
aF0.0643589049577713
aF0.054817888885736465
aF0.06382786482572556
aF0.06289706379175186
aF0.062141936272382736
aF0.06920834630727768
aF0.05283481627702713
aF0.05435067042708397
aF0.04117134213447571
aF0.0523839071393013
aF0.0641017034649849
aF0.06260954588651657
aF0.04923391714692116
aF0.05944221466779709
aF0.07454852759838104
aF0.05271657183766365
aF0.059741146862506866
aF0.059184130281209946
aF0.04839294031262398
aF0.05927271395921707
aF0.059700269252061844
aF0.08453703671693802
aF0.07000844925642014
aF0.04011005908250809
aF0.06283863633871078
aF0.041480835527181625
aF0.05247054249048233
aF0.06752955913543701
aF0.07782638818025589
aF0.061506595462560654
aF0.07360466569662094
aF0.08020348846912384
aF0.06902387738227844
aF0.05722780153155327
aF0.04537535458803177
aF0.04705570638179779
aF0.055059779435396194
aF0.07758430391550064
aF0.056682195514440536
aF0.07729022204875946
aF0.047229453921318054
aF0.07603149861097336
aF0.08022917807102203
aF0.0711265355348587
aF0.06667109578847885
aF0.05412633344531059
aF0.07328110188245773
aF0.062085606157779694
aF0.07837379723787308
aF0.06350307166576385
aF0.05170238018035889
aF0.04394229128956795
aF0.05101032182574272
aF0.06994307786226273
aF0.056973084807395935
aF0.06574176996946335
aF0.05455196648836136
aF0.06611784547567368
aF0.07612369954586029
aF0.05419733747839928
aF0.05596647411584854
aF0.055456724017858505
aF0.05693110451102257
aF0.0708029717206955
aF0.05660014972090721
aF0.07244719564914703
aF0.05849979817867279
aF0.051117122173309326
aF0.06267379969358444
aF0.06802212446928024
aF0.06500230729579926
aF0.06361368298530579
aF0.0417608767747879
aF0.06450168788433075
aF0.0561484768986702
aF0.05910152941942215
aF0.05419333279132843
aF0.04929449409246445
aF0.07019830495119095
aF0.054769448935985565
aF0.051504842936992645
aF0.06784407794475555
aF0.05243254080414772
aF0.07197365909814835
aF0.0801505520939827
aF0.05661091208457947
aF0.0674615129828453
aF0.05710572004318237
aF0.06329204142093658
aF0.06318321824073792
aF0.055985305458307266
aF0.062286317348480225
aF0.04679087549448013
aF0.06180980056524277
aF0.05886109545826912
aF0.05269380286335945
aF0.05205559358000755
aF0.044764041900634766
aF0.06572943180799484
aF0.05692121386528015
aF0.07834325730800629
aF0.053695373237133026
aF0.06331318616867065
aF0.06342421472072601
aF0.060960475355386734
aF0.06385724246501923
aF0.06489692628383636
aF0.0704038068652153
aF0.0679139569401741
aF0.05276362597942352
aF0.055681269615888596
aF0.07427813857793808
aF0.06805696338415146
aF0.067459836602211
aF0.05389782413840294
aF0.05616316199302673
aF0.04831504821777344
aF0.06860166788101196
aF0.06484407186508179
aF0.07247959822416306
aF0.0578543096780777
aF0.06448452174663544
aF0.06712937355041504
aF0.05174814909696579
aF0.05936330556869507
aF0.05583248659968376
aF0.09159799665212631
aF0.07687985152006149
aF0.060220010578632355
aF0.06815466284751892
aF0.04846233129501343
aF0.0765938088297844
aF0.06632336229085922
aF0.04718679562211037
aF0.06925901025533676
aF0.05295886471867561
aF0.054851286113262177
aF0.05771138146519661
aF0.05645579844713211
aF0.06345874816179276
aF0.05840680003166199
aF0.07794654369354248
aF0.056192267686128616
aF0.0804779976606369
aF0.05154202878475189
aF0.059973448514938354
aF0.08263689279556274
aF0.06461207568645477
aF0.05883800983428955
aF0.08176688849925995
aF0.04619836062192917
aF0.0623934231698513
aF0.05563312768936157
aF0.06652981787919998
aF0.07166270911693573
aF0.05710577592253685
aF0.07085265964269638
aF0.0766434296965599
aF0.05125413089990616
aF0.060425858944654465
aF0.0632919892668724
aF0.0830647274851799
aF0.06039506942033768
aF0.05551602691411972
aF0.053672753274440765
aF0.05579906329512596
aF0.06608749181032181
aF0.06404745578765869
aF0.07103283703327179
aF0.059209711849689484
aF0.060694653540849686
aF0.04342497140169144
aF0.06541303545236588
aF0.043714333325624466
aF0.05625269189476967
aF0.05960730463266373
aF0.06263262778520584
aF0.06562705338001251
aF0.0402972437441349
aF0.07168640941381454
aF0.06052789092063904
aF0.04944421723484993
aF0.057280510663986206
aF0.06097465381026268
aF0.058034300804138184
aF0.054262541234493256
aF0.05962521210312843
aF0.05347876623272896
aF0.05753546208143234
aF0.08077170699834824
aF0.0719432458281517
aF0.06687457859516144
aF0.07566052675247192
aF0.065591961145401
aF0.06038498878479004
aF0.06935214251279831
aF0.0679832473397255
aF0.06236053630709648
aF0.05765294283628464
aF0.06652439385652542
aF0.050378940999507904
aF0.062356121838092804
aF0.06488782912492752
aF0.06332981586456299
aF0.06761100888252258
aF0.06781864166259766
aF0.05806262791156769
aF0.06296683102846146
aF0.05375950038433075
aF0.07098831236362457
aF0.0609273724257946
aF0.05439247936010361
aF0.07594426721334457
aF0.0587397962808609
aF0.05353346839547157
aF0.0640401542186737
aF0.057722222059965134
aF0.06340592354536057
aF0.07241059839725494
aF0.04299323260784149
aF0.06107478216290474
aF0.06875017285346985
aF0.05811110883951187
aF0.0685921236872673
aF0.05412908270955086
aF0.04875003919005394
aF0.05960466340184212
aF0.07073318958282471
aF0.06382790207862854
aF0.07226085662841797
aF0.059229668229818344
aF0.05905737727880478
aF0.05293813720345497
aF0.05219395458698273
aF0.0570869967341423
aF0.03989219292998314
aF0.058360543102025986
aF0.06752924621105194
aF0.04736611619591713
aF0.05161621421575546
aF0.06909691542387009
aF0.05678466707468033
aF0.07805576175451279
aF0.0621693953871727
aF0.03811100125312805
aF0.06507696211338043
aF0.061057791113853455
aF0.05502764880657196
aF0.10696077346801758
aF0.077628955245018
aF0.052907153964042664
aF0.0745440125465393
aF0.05233505740761757
aF0.057246796786785126
aF0.04327661171555519
aF0.06675489991903305
aF0.06872466206550598
aF0.05912051349878311
aF0.060015883296728134
aF0.0737190991640091
aF0.06846851855516434
aF0.06767154484987259
aF0.08093161880970001
aF0.07229368388652802
aF0.04929858446121216
aF0.05688780918717384
aF0.05707840621471405
aF0.06395086646080017
aF0.06746590882539749
aF0.04577825590968132
aF0.05415410175919533
aF0.056273285299539566
aF0.06222549453377724
aF0.06945125758647919
aF0.05850262567400932
aF0.04290321096777916
aF0.034530334174633026
aF0.05645965412259102
aF0.05871618166565895
aF0.0543864369392395
aF0.06628827005624771
aF0.06523990631103516
aF0.04994753375649452
aF0.061187200248241425
aF0.0655376985669136
aF0.05673232302069664
aF0.06453968584537506
aF0.0638890489935875
aF0.059775061905384064
aF0.06563826650381088
aF0.05322195217013359
aF0.05819467827677727
aF0.04199626296758652
aF0.04811292141675949
aF0.06256483495235443
aF0.06427014619112015
aF0.04805627465248108
aF0.060440149158239365
aF0.07095180451869965
aF0.057525478303432465
aF0.05846375226974487
aF0.05422136187553406
aF0.04556635767221451
aF0.05881109833717346
aF0.05569630116224289
aF0.08318334817886353
aF0.07317788153886795
aF0.04005281999707222
aF0.0587216354906559
aF0.0409158430993557
aF0.049228545278310776
aF0.06641383469104767
aF0.07717225700616837
aF0.05921423062682152
aF0.06978614628314972
aF0.07740812003612518
aF0.06805112957954407
aF0.06139545142650604
aF0.04349445924162865
aF0.04509633406996727
aF0.05248731002211571
aF0.07650037109851837
aF0.05811822786927223
aF0.07975272089242935
aF0.05181749537587166
aF0.0738878846168518
aF0.08018805831670761
aF0.07611025869846344
aF0.06879439949989319
aF0.053625233471393585
aF0.07431992143392563
aF0.06204858422279358
aF0.07058162242174149
aF0.06867407262325287
aF0.054252684116363525
aF0.04378678277134895
aF0.04477259889245033
aF0.0696583241224289
aF0.05573473870754242
aF0.061821769922971725
aF0.055726002901792526
aF0.06940517574548721
aF0.07610723376274109
aF0.05702681839466095
aF0.05584653466939926
aF0.045410893857479095
aF0.05266334488987923
aF0.07554212957620621
aF0.05477079749107361
aF0.07677390426397324
aF0.05632727965712547
aF0.05469374731183052
aF0.06524689495563507
aF0.06778480112552643
aF0.06591927260160446
aF0.06532751023769379
aF0.042578116059303284
aF0.06185892969369888
aF0.05836695432662964
aF0.05825161561369896
aF0.05263829231262207
aF0.052863284945487976
aF0.067711740732193
aF0.054557427763938904
aF0.05275750905275345
aF0.0694296807050705
aF0.05152782425284386
aF0.07169458270072937
aF0.0829867348074913
aF0.05670469254255295
aF0.0659542977809906
aF0.05191993713378906
aF0.06603214889764786
aF0.06223415210843086
aF0.054258424788713455
aF0.06464303284883499
aF0.05036883056163788
aF0.06506183743476868
aF0.058264344930648804
aF0.051106441766023636
aF0.051950857043266296
aF0.0471954382956028
aF0.06312576681375504
aF0.05441895127296448
aF0.0796799436211586
aF0.05503573641180992
aF0.05838986113667488
aF0.06421791017055511
aF0.0578332394361496
aF0.06504324823617935
aF0.06378602236509323
aF0.06724973767995834
aF0.06257586181163788
aF0.049220167100429535
aF0.05472205951809883
aF0.07044751197099686
aF0.07170788943767548
aF0.06475125998258591
aF0.05257513001561165
aF0.059271182864904404
aF0.04943760111927986
aF0.06776338070631027
aF0.06219299137592316
aF0.06933518499135971
aF0.05564979463815689
aF0.06047767028212547
aF0.062484513968229294
aF0.05016731098294258
aF0.06125159189105034
aF0.058723218739032745
aF0.08956940472126007
aF0.07413079589605331
aF0.05676722526550293
aF0.06887367367744446
aF0.04735826700925827
aF0.07406171411275864
aF0.06565434485673904
aF0.04904083162546158
aF0.06578222662210464
aF0.0511401891708374
aF0.057458460330963135
aF0.059277575463056564
aF0.059622298926115036
aF0.060567907989025116
aF0.05670137330889702
aF0.07491203397512436
aF0.060891732573509216
aF0.07452404499053955
aF0.049916137009859085
aF0.05850960686802864
aF0.08382133394479752
aF0.06988301128149033
aF0.06472855806350708
aF0.07643847167491913
aF0.05035707727074623
aF0.059052228927612305
aF0.05645585432648659
aF0.06341686099767685
aF0.07059989869594574
aF0.05501914024353027
aF0.06785834580659866
aF0.07254841178655624
aF0.05189697816967964
aF0.05677000805735588
aF0.06675129383802414
aF0.07829441130161285
aF0.06090735271573067
aF0.05417540669441223
aF0.05132579058408737
aF0.06159721314907074
aF0.06627289205789566
aF0.060549549758434296
aF0.07512219250202179
aF0.05404472351074219
aF0.06519073992967606
aF0.04362931102514267
aF0.0654652938246727
aF0.04228716716170311
aF0.05966181308031082
aF0.06460680812597275
aF0.06312787532806396
aF0.059921994805336
aF0.040506403893232346
aF0.07336609065532684
aF0.0561729334294796
aF0.049114227294921875
aF0.05944341421127319
aF0.05849594995379448
aF0.06179405376315117
aF0.050624605268239975
aF0.05641704425215721
aF0.050700318068265915
aF0.05875275284051895
aF0.08046869933605194
aF0.07075820118188858
aF0.06317928433418274
aF0.07014381140470505
aF0.06008198484778404
aF0.06389909237623215
aF0.06383533030748367
aF0.06652124226093292
aF0.06002160534262657
aF0.05335071682929993
aF0.06735497713088989
aF0.05070212855935097
aF0.05899965390563011
aF0.06175386905670166
aF0.0606294609606266
aF0.07091942429542542
aF0.06927923858165741
aF0.061892956495285034
aF0.06523162126541138
aF0.057255130261182785
aF0.0685214251279831
aF0.05953807383775711
aF0.053387463092803955
aF0.07334883511066437
aF0.05892892926931381
aF0.05396411195397377
aF0.06016332283616066
aF0.06111596152186394
aF0.05842278525233269
aF0.0730840340256691
aF0.04243280738592148
aF0.06248542666435242
aF0.06906922906637192
aF0.05310898274183273
aF0.06468462198972702
aF0.05870100483298302
aF0.047848109155893326
aF0.05422274395823479
aF0.0675097405910492
aF0.06338393688201904
aF0.07221924513578415
aF0.06120104342699051
aF0.06409598141908646
aF0.05796011537313461
aF0.054216958582401276
aF0.05571784824132919
aF0.04004836082458496
aF0.05707304924726486
aF0.06580676883459091
aF0.04835742339491844
aF0.05005104839801788
aF0.06416528671979904
aF0.059721868485212326
aF0.0754062756896019
aF0.061328914016485214
aF0.03828952834010124
aF0.06308292597532272
aF0.05659807100892067
aF0.05392313376069069
aF0.10834062099456787
aF0.07093910872936249
aF0.0517578199505806
aF0.08102832734584808
aF0.052753981202840805
aF0.05560749024152756
aF0.045761846005916595
aF0.06534536182880402
aF0.06627003103494644
aF0.058529652655124664
aF0.05784476175904274
aF0.07664544135332108
aF0.06917595863342285
aF0.0649702176451683
aF0.07429936528205872
aF0.07251234352588654
aF0.05030479282140732
aF0.056164905428886414
aF0.05706607922911644
aF0.06208467110991478
aF0.0644906535744667
aF0.04564014822244644
aF0.05311783030629158
aF0.051250215619802475
aF0.057725924998521805
aF0.06806766986846924
aF0.05987868085503578
aF0.04477699473500252
aF0.03519951552152634
aF0.05573641136288643
aF0.05674102529883385
aF0.052441392093896866
aF0.06905259191989899
aF0.06437690556049347
aF0.04735825955867767
aF0.06771518290042877
aF0.06487581133842468
aF0.054567720741033554
aF0.06293196976184845
aF0.06564632058143616
aF0.06477299332618713
aF0.06362582743167877
aF0.05434749275445938
aF0.053132589906454086
aF0.04317334294319153
aF0.047494661062955856
aF0.06745705753564835
aF0.0634930431842804
aF0.046695347875356674
aF0.062121592462062836
aF0.07594845443964005
aF0.05350155383348465
aF0.05767928063869476
aF0.058118633925914764
aF0.0455792061984539
aF0.06385881453752518
aF0.057845257222652435
aF0.09086913615465164
aF0.07067785412073135
aF0.04083165153861046
aF0.06102386862039566
aF0.03884662687778473
aF0.05274910107254982
aF0.0684380754828453
aF0.07433708012104034
aF0.05918032303452492
aF0.07009349763393402
aF0.07950866222381592
aF0.06655964255332947
aF0.05866347253322601
aF0.03914880380034447
aF0.04507705941796303
aF0.05074009299278259
aF0.07910697907209396
aF0.05728607252240181
aF0.07719670981168747
aF0.05180194228887558
aF0.07086791843175888
aF0.0750778391957283
aF0.07081431150436401
aF0.06835095584392548
aF0.05016597360372543
aF0.07041136920452118
aF0.061346959322690964
aF0.07177634537220001
aF0.06796067953109741
aF0.05660494789481163
aF0.04835114628076553
aF0.04768623039126396
aF0.0670829564332962
aF0.05353057011961937
aF0.066708043217659
aF0.056144293397665024
aF0.07210943102836609
aF0.07366350293159485
aF0.05467718094587326
aF0.05884622409939766
aF0.04740927740931511
aF0.05445191264152527
aF0.07270584255456924
aF0.05505046993494034
aF0.0709744468331337
aF0.05621401593089104
aF0.05248422920703888
aF0.06498062610626221
aF0.06517807394266129
aF0.06368522346019745
aF0.06572669744491577
aF0.039940498769283295
aF0.05942738801240921
aF0.05697189271450043
aF0.061754196882247925
aF0.0568244569003582
aF0.05568879470229149
aF0.06878873705863953
aF0.05427546054124832
aF0.05248284339904785
aF0.06743300706148148
aF0.04836725443601608
aF0.07316659390926361
aF0.08131223917007446
aF0.05516934022307396
aF0.06788873672485352
aF0.05367272347211838
aF0.06865993142127991
aF0.06359731405973434
aF0.055136341601610184
aF0.06409306079149246
aF0.05163256824016571
aF0.06672682613134384
aF0.05613413825631142
aF0.05148295685648918
aF0.05216651037335396
aF0.04478535056114197
aF0.07072075456380844
aF0.05932582542300224
aF0.07567370682954788
aF0.053979020565748215
aF0.05513027682900429
aF0.06262031197547913
aF0.055362388491630554
aF0.06223442032933235
aF0.06329673528671265
aF0.07069233059883118
aF0.06172863021492958
aF0.05108246952295303
aF0.05602123588323593
aF0.07016776502132416
aF0.0726652443408966
aF0.06568484008312225
aF0.05356859415769577
aF0.056790776550769806
aF0.04944818466901779
aF0.06920890510082245
aF0.061614807695150375
aF0.06700769811868668
aF0.05743815377354622
aF0.0644109919667244
aF0.06275056302547455
aF0.05331994220614433
aF0.0603376179933548
aF0.05232052877545357
aF0.08742427080869675
aF0.07324738055467606
aF0.058198120445013046
aF0.07066922634840012
aF0.047830015420913696
aF0.07484366744756699
aF0.06362896412611008
aF0.049164291471242905
aF0.06985266506671906
aF0.052835870534181595
aF0.057672690600156784
aF0.055878978222608566
aF0.05176065117120743
aF0.06434887647628784
aF0.05894826352596283
aF0.07846835255622864
aF0.05753789842128754
aF0.07636994868516922
aF0.05309081822633743
aF0.05650250241160393
aF0.08124194294214249
aF0.06453204154968262
aF0.05708496645092964
aF0.07795515656471252
aF0.04806530103087425
aF0.05647282302379608
aF0.05853166803717613
aF0.06369132548570633
aF0.06994885951280594
aF0.05560179054737091
aF0.06639844179153442
aF0.07315055280923843
aF0.054501187056303024
aF0.057413894683122635
aF0.06512580811977386
aF0.07449208199977875
aF0.057130128145217896
aF0.05277532711625099
aF0.05294691398739815
aF0.05422329530119896
aF0.06613423675298691
aF0.06184013932943344
aF0.07082739472389221
aF0.059071917086839676
aF0.06076664477586746
aF0.04409997537732124
aF0.05930390954017639
aF0.04299253597855568
aF0.05566384270787239
aF0.05700567364692688
aF0.06471557170152664
aF0.06136976554989815
aF0.03967653587460518
aF0.0693153515458107
aF0.057770419865846634
aF0.04972602799534798
aF0.06208481639623642
aF0.055568914860486984
aF0.061240676790475845
aF0.054746758192777634
aF0.05624241754412651
aF0.048846498131752014
aF0.059316590428352356
aF0.08301232755184174
aF0.07347993552684784
aF0.06278543174266815
aF0.07250949740409851
aF0.06264955550432205
aF0.05959251895546913
aF0.06393375247716904
aF0.0645446628332138
aF0.05769827216863632
aF0.05753542482852936
aF0.06763116270303726
aF0.048843562602996826
aF0.05899401754140854
aF0.059417691081762314
aF0.06315875053405762
aF0.06785672158002853
aF0.07354515045881271
aF0.05984294414520264
aF0.06907656788825989
aF0.05606468766927719
aF0.07055544853210449
aF0.05792650207877159
aF0.05244328826665878
aF0.0701320618391037
aF0.0525081604719162
aF0.05306776612997055
aF0.05620606616139412
aF0.05749741196632385
aF0.0639672577381134
aF0.074029341340065
aF0.044619932770729065
aF0.06318426132202148
aF0.06597074121236801
aF0.05598253011703491
aF0.06805934011936188
aF0.05719194933772087
aF0.050438668578863144
aF0.059116873890161514
aF0.0716477483510971
aF0.06445888429880142
aF0.07630904763936996
aF0.06290688365697861
aF0.06251121312379837
aF0.05463647469878197
aF0.05149932578206062
aF0.055189888924360275
aF0.03957290202379227
aF0.055947743356227875
aF0.06470514088869095
aF0.04665353149175644
aF0.05240732431411743
aF0.06775511801242828
aF0.05948059633374214
aF0.07084532082080841
aF0.060011062771081924
aF0.04052526876330376
aF0.06336729228496552
aF0.059161700308322906
aF0.054200757294893265
aF0.10809137672185898
aF0.07111872732639313
aF0.05470336601138115
aF0.07463620603084564
aF0.05545467883348465
aF0.05393223091959953
aF0.044929325580596924
aF0.06971147656440735
aF0.06318175047636032
aF0.057304345071315765
aF0.054912783205509186
aF0.0697946548461914
aF0.06786679476499557
aF0.06807655096054077
aF0.07096338272094727
aF0.06937071681022644
aF0.05010605230927467
aF0.057332027703523636
aF0.057704877108335495
aF0.06489945203065872
aF0.0632440373301506
aF0.04386625066399574
aF0.05513766035437584
aF0.055203940719366074
aF0.05770953744649887
aF0.06100985035300255
aF0.058496251702308655
aF0.04512091353535652
aF0.03333251178264618
aF0.0493142269551754
aF0.058973927050828934
aF0.05535680055618286
aF0.06581458449363708
aF0.066862091422081
aF0.04687654599547386
aF0.06686411798000336
aF0.0629604384303093
aF0.059478018432855606
aF0.06337082386016846
aF0.061549242585897446
aF0.0638335719704628
aF0.0720803290605545
aF0.05052037909626961
aF0.05882403999567032
aF0.04567698761820793
aF0.04745936021208763
aF0.06603223085403442
aF0.06501820683479309
aF0.049581654369831085
aF0.05852044001221657
aF0.07505125552415848
aF0.05641042813658714
aF0.05696016550064087
aF0.05331044644117355
aF0.048460252583026886
aF0.06184839457273483
aF0.057718247175216675
aF0.08581797033548355
aF0.0700296014547348
aF0.04013160243630409
aF0.060995977371931076
aF0.03905381262302399
aF0.05448579788208008
aF0.06802858412265778
aF0.07485679537057877
aF0.05726915970444679
aF0.06823135912418365
aF0.07663799077272415
aF0.06803350150585175
aF0.06014721095561981
aF0.043196551501750946
aF0.04347275197505951
aF0.05160018056631088
aF0.07771287113428116
aF0.05932467803359032
aF0.08050359785556793
aF0.05210452154278755
aF0.07273674756288528
aF0.0782143846154213
aF0.07286883145570755
aF0.0668473169207573
aF0.05036110803484917
aF0.06749112159013748
aF0.061498064547777176
aF0.07088229060173035
aF0.06529484689235687
aF0.05266951397061348
aF0.04836973175406456
aF0.04718887060880661
aF0.06638122349977493
aF0.0539817214012146
aF0.05805106461048126
aF0.05345354974269867
aF0.0735575258731842
aF0.07688576728105545
aF0.05313127115368843
aF0.058139603585004807
aF0.048030924052000046
aF0.05509374663233757
aF0.07890138030052185
aF0.051991842687129974
aF0.07199367880821228
aF0.06502190977334976
aF0.05656830966472626
aF0.06604181230068207
aF0.06447560340166092
aF0.06711693853139877
aF0.06259731203317642
aF0.04502971097826958
aF0.05908392742276192
aF0.05748781934380531
aF0.05946166813373566
aF0.050581205636262894
aF0.053254809230566025
aF0.0696728527545929
aF0.052025206387043
aF0.049582622945308685
aF0.06973773241043091
aF0.04809105396270752
aF0.06962310522794724
aF0.08234764635562897
aF0.05858501046895981
aF0.06527967005968094
aF0.05070650577545166
aF0.0715157762169838
aF0.06496143341064453
aF0.05080212652683258
aF0.06157851219177246
aF0.05121595785021782
aF0.06445349007844925
aF0.05377739667892456
aF0.05197630450129509
aF0.050121009349823
aF0.04596173018217087
aF0.06112739071249962
aF0.05631531402468681
aF0.07640232890844345
aF0.05224940925836563
aF0.05674304440617561
aF0.0669630691409111
aF0.06165982782840729
aF0.06396342813968658
aF0.06159079447388649
aF0.06918598711490631
aF0.06579384207725525
aF0.05008188262581825
aF0.055951014161109924
aF0.07299918681383133
aF0.06743106245994568
aF0.06363587081432343
aF0.05270194262266159
aF0.057293087244033813
aF0.05075615271925926
aF0.06677256524562836
aF0.062375739216804504
aF0.07118335366249084
aF0.05318301171064377
aF0.05882718041539192
aF0.06712590157985687
aF0.050036054104566574
aF0.05559445917606354
aF0.05354982987046242
aF0.08953211456537247
aF0.07461970299482346
aF0.06178891286253929
aF0.06597701460123062
aF0.05088580772280693
aF0.07404125481843948
aF0.06750191003084183
aF0.049606069922447205
aF0.06706830114126205
aF0.05302899330854416
aF0.05763356760144234
aF0.059231702238321304
aF0.05291178077459335
aF0.061315134167671204
aF0.059141840785741806
aF0.07723326236009598
aF0.06018167734146118
aF0.07827074825763702
aF0.054800909012556076
aF0.056362349539995193
aF0.08293230831623077
aF0.0651169866323471
aF0.06363513320684433
aF0.08101574331521988
aF0.04639999940991402
aF0.055886317044496536
aF0.05570068210363388
aF0.06614542752504349
aF0.0699833333492279
aF0.056618668138980865
aF0.06871204823255539
aF0.07213412970304489
aF0.04885752126574516
aF0.06072297692298889
aF0.061439238488674164
aF0.08176782727241516
aF0.057874735444784164
aF0.05557945370674133
aF0.0486626923084259
aF0.05939479172229767
aF0.06628458946943283
aF0.059487804770469666
aF0.07097016274929047
aF0.05818609893321991
aF0.06382858753204346
aF0.04213525727391243
aF0.0638016015291214
aF0.046765320003032684
aF0.057324327528476715
aF0.05966416746377945
aF0.06115476042032242
aF0.05751189589500427
aF0.038400594145059586
aF0.06704296916723251
aF0.053567927330732346
aF0.04925521835684776
aF0.06135774403810501
aF0.05864781141281128
aF0.06300859153270721
aF0.05702655017375946
aF0.054940540343523026
aF0.04885806143283844
aF0.0629381462931633
aF0.08312301337718964
aF0.06922813504934311
aF0.05980554595589638
aF0.06953094154596329
aF0.06207593157887459
aF0.06293268501758575
aF0.064888596534729
aF0.06498531997203827
aF0.06059647724032402
aF0.058741550892591476
aF0.06803631782531738
aF0.050618577748537064
aF0.06054646521806717
aF0.06183996424078941
aF0.061446547508239746
aF0.06636637449264526
aF0.07173759490251541
aF0.061155643314123154
aF0.06524927914142609
aF0.05718697980046272
aF0.07038847357034683
aF0.058796875178813934
aF0.051924027502536774
aF0.0663057193160057
aF0.056247543543577194
aF0.05132346972823143
aF0.05868295952677727
aF0.05912848562002182
aF0.06432218104600906
aF0.07155197113752365
aF0.044186655431985855
aF0.06580435484647751
aF0.06368017196655273
aF0.054424580186605453
aF0.06386484205722809
aF0.05407066270709038
aF0.04916723817586899
aF0.05986776575446129
aF0.07296247780323029
aF0.05859469622373581
aF0.07488954812288284
aF0.06384339928627014
aF0.06126679107546806
aF0.05539250001311302
aF0.05429070070385933
aF0.05991453677415848
aF0.043541133403778076
aF0.05725599825382233
aF0.0656127855181694
aF0.0471009761095047
aF0.05323001369833946
aF0.06663015484809875
aF0.05545136332511902
aF0.07292947173118591
aF0.061284441500902176
aF0.04122951999306679
aF0.060439229011535645
aF0.0555078499019146
aF0.055596355348825455
aF0.10371255874633789
aF0.07552999258041382
aF0.053795602172613144
aF0.07914674282073975
aF0.05190550535917282
aF0.05523892864584923
aF0.040968094021081924
aF0.06954164803028107
aF0.06245069205760956
aF0.05515705421566963
aF0.05805758386850357
aF0.07438166439533234
aF0.07219356298446655
aF0.06618648767471313
aF0.078407421708107
aF0.06811898946762085
aF0.04981810227036476
aF0.05475325137376785
aF0.05938483774662018
aF0.06323368847370148
aF0.06221667304635048
aF0.0433199517428875
aF0.055829040706157684
aF0.05115743353962898
aF0.05792306736111641
aF0.06782793998718262
aF0.06146688014268875
aF0.045224789530038834
aF0.03247583284974098
aF0.055560458451509476
aF0.06080394610762596
aF0.05713299661874771
aF0.06474930047988892
aF0.06369760632514954
aF0.05152563005685806
aF0.06390483677387238
aF0.0646698921918869
aF0.05593166500329971
aF0.06378362327814102
aF0.06576594710350037
aF0.06375038623809814
aF0.06554383039474487
aF0.05067127197980881
aF0.05780745670199394
aF0.04172763228416443
aF0.04691449925303459
aF0.06165472790598869
aF0.06094939634203911
aF0.0497661754488945
aF0.06452427804470062
aF0.07333339750766754
aF0.05531001463532448
aF0.05600287392735481
aF0.057157255709171295
aF0.04864819347858429
aF0.06299134343862534
aF0.056330449879169464
aF0.087827168405056
aF0.07368870079517365
aF0.03964271768927574
aF0.0672101154923439
aF0.04298824071884155
aF0.05303594470024109
aF0.06695107370615005
aF0.07456829398870468
aF0.05811281129717827
aF0.06864018738269806
aF0.07517050951719284
aF0.06259319931268692
aF0.05733318626880646
aF0.043014079332351685
aF0.04249216616153717
aF0.052607107907533646
aF0.07902371138334274
aF0.058146338909864426
aF0.07529846578836441
aF0.05029745027422905
aF0.07483923435211182
aF0.07890265434980392
aF0.0685892328619957
aF0.06352726370096207
aF0.05080664902925491
aF0.07684917747974396
aF0.06108808144927025
aF0.07072778046131134
aF0.06811399012804031
aF0.05624503642320633
aF0.047163330018520355
aF0.05061126872897148
aF0.07298637926578522
aF0.05644826591014862
aF0.06170317530632019
aF0.052840013056993484
aF0.07485619187355042
aF0.07417429983615875
aF0.052449699491262436
aF0.0582214780151844
aF0.054523199796676636
aF0.05301449075341225
aF0.06898244470357895
aF0.051459189504384995
aF0.07522475719451904
aF0.06103380024433136
aF0.052360065281391144
aF0.061185311526060104
aF0.06902919709682465
aF0.06349103152751923
aF0.06374623626470566
aF0.044174447655677795
aF0.05812739580869675
aF0.059656981378793716
aF0.05587894096970558
aF0.05185205861926079
aF0.05183355510234833
aF0.07010332494974136
aF0.05288957804441452
aF0.05219968408346176
aF0.07081431150436401
aF0.04799996688961983
aF0.06792190670967102
aF0.08399823307991028
aF0.05800073221325874
aF0.06882836669683456
aF0.0517968125641346
aF0.06693099439144135
aF0.06231106072664261
aF0.049353744834661484
aF0.06026094779372215
aF0.050698742270469666
aF0.06638342142105103
aF0.05578269064426422
aF0.04965127632021904
aF0.05100759118795395
aF0.04480950906872749
aF0.06782575696706772
aF0.0587301030755043
aF0.07985087484121323
aF0.053724538534879684
aF0.056697260588407516
aF0.0597044974565506
aF0.05824108049273491
aF0.0637449324131012
aF0.06667274236679077
aF0.07058271020650864
aF0.06397147476673126
aF0.05373790115118027
aF0.057760145515203476
aF0.07040255516767502
aF0.0711352601647377
aF0.06836643815040588
aF0.04985778033733368
aF0.058724164962768555
aF0.04722169041633606
aF0.0717918649315834
aF0.06327787786722183
aF0.06867791712284088
aF0.05014211684465408
aF0.06200609356164932
aF0.06295282393693924
aF0.051031630486249924
aF0.058508120477199554
aF0.053814180195331573
aF0.08448295295238495
aF0.07116302847862244
aF0.056720416992902756
aF0.0691058561205864
aF0.04720006883144379
aF0.07622943073511124
aF0.06760912388563156
aF0.05042373016476631
aF0.06983648985624313
aF0.04986491799354553
aF0.05520565062761307
aF0.0543694943189621
aF0.05862344056367874
aF0.061961229890584946
aF0.057318106293678284
aF0.07438695430755615
aF0.0604204386472702
aF0.07559784501791
aF0.054169148206710815
aF0.057007260620594025
aF0.08692114055156708
aF0.06137070804834366
aF0.057256147265434265
aF0.08095195144414902
aF0.04474359378218651
aF0.0592263899743557
aF0.055641911923885345
aF0.06240300089120865
aF0.07079343497753143
aF0.0579703152179718
aF0.06718345731496811
aF0.0746995061635971
aF0.05104338005185127
aF0.05704503878951073
aF0.0661383792757988
aF0.07580682635307312
aF0.05737438052892685
aF0.05452811345458031
aF0.052192818373441696
aF0.0559486486017704
aF0.07206076383590698
aF0.057021088898181915
aF0.07190132141113281
aF0.059384945780038834
aF0.06374667584896088
aF0.04228862375020981
aF0.059960007667541504
aF0.04361069202423096
aF0.05662877485156059
aF0.05555659532546997
aF0.06439448148012161
aF0.05832105129957199
aF0.03823225200176239
aF0.07189490646123886
aF0.057596705853939056
aF0.051907170563936234
aF0.06230241805315018
aF0.05437018349766731
aF0.06283682584762573
aF0.056143324822187424
aF0.05598991736769676
aF0.05016587674617767
aF0.060826122760772705
aF0.0843227431178093
aF0.06704670190811157
aF0.06087172031402588
aF0.0693884789943695
aF0.06317593157291412
aF0.062242839485406876
aF0.06476590782403946
aF0.06626108288764954
aF0.06184769049286842
aF0.058479055762290955
aF0.0655868723988533
aF0.050436314195394516
aF0.06067986786365509
aF0.06487888097763062
aF0.060711901634931564
aF0.06668752431869507
aF0.06634306162595749
aF0.06439775228500366
aF0.05770281329751015
aF0.05563941225409508
aF0.06968390196561813
aF0.0624922439455986
aF0.05497145280241966
aF0.07365639507770538
aF0.05855606868863106
aF0.0491228811442852
aF0.06021200120449066
aF0.05834822729229927
aF0.06060786172747612
aF0.07598931342363358
aF0.04382563754916191
aF0.0637529119849205
aF0.06693542003631592
aF0.054278191179037094
aF0.06239796802401543
aF0.05531904101371765
aF0.048887334764003754
aF0.05740473046898842
aF0.07178081572055817
aF0.06430964916944504
aF0.07873189449310303
aF0.06068173423409462
aF0.06402038782835007
aF0.055295273661613464
aF0.05684280768036842
aF0.06096590682864189
aF0.04136686399579048
aF0.05804566293954849
aF0.06742938607931137
aF0.049126964062452316
aF0.0504273921251297
aF0.06778089702129364
aF0.055062297731637955
aF0.07192806899547577
aF0.05903918296098709
aF0.040474340319633484
aF0.06379228830337524
aF0.05582403764128685
aF0.05745743587613106
aF0.10346607863903046
aF0.07518226653337479
aF0.05450235679745674
aF0.07929563522338867
aF0.050585657358169556
aF0.052565302699804306
aF0.04221522435545921
aF0.06540966778993607
aF0.06130806356668472
aF0.059227440506219864
aF0.05778493732213974
aF0.07564800977706909
aF0.06861044466495514
aF0.06637772172689438
aF0.07616861164569855
aF0.07334252446889877
aF0.049997728317976
aF0.059058427810668945
aF0.058334022760391235
aF0.06241355091333389
aF0.06232660263776779
aF0.04294108226895332
aF0.05329052731394768
aF0.051036056131124496
aF0.0577305443584919
aF0.06890132278203964
aF0.05739042907953262
aF0.04492492601275444
aF0.033951371908187866
aF0.05169301852583885
aF0.05747641995549202
aF0.054946523159742355
aF0.0677882581949234
aF0.06323316693305969
aF0.04741194099187851
aF0.06796356290578842
aF0.0622878223657608
aF0.05283033847808838
aF0.06395796686410904
aF0.05934290587902069
aF0.06508997082710266
aF0.06287632882595062
aF0.052583128213882446
aF0.05464945361018181
aF0.03833915293216705
aF0.04881012439727783
aF0.06460028141736984
aF0.0665120929479599
aF0.04643590748310089
aF0.058516550809144974
aF0.07181145250797272
aF0.06135636195540428
aF0.05800547078251839
aF0.05473044514656067
aF0.048322804272174835
aF0.06079193577170372
aF0.05784740298986435
aF0.08630727231502533
aF0.07076454162597656
aF0.04138869419693947
aF0.06557437777519226
aF0.041748274117708206
aF0.05556130036711693
aF0.06884010881185532
aF0.07951914519071579
aF0.06012518331408501
aF0.06931039690971375
aF0.07631483674049377
aF0.06666018068790436
aF0.05868867412209511
aF0.04503894969820976
aF0.046870309859514236
aF0.051302868872880936
aF0.07866345345973969
aF0.059798188507556915
aF0.07840271294116974
aF0.04629398137331009
aF0.07041887938976288
aF0.07763991504907608
aF0.07010477781295776
aF0.062487006187438965
aF0.050904933363199234
aF0.07577134668827057
aF0.060216374695301056
aF0.07450462877750397
aF0.06814946234226227
aF0.05023970827460289
aF0.048569221049547195
aF0.0481029748916626
aF0.07077518850564957
aF0.05444526672363281
aF0.06232484057545662
aF0.05613306537270546
aF0.07465184479951859
aF0.07425534725189209
aF0.0514989010989666
aF0.058489106595516205
aF0.04962962865829468
aF0.055562663823366165
aF0.06912827491760254
aF0.05252828449010849
aF0.07228382676839828
aF0.060110341757535934
aF0.05467894673347473
aF0.06524170190095901
aF0.0652565211057663
aF0.06548529118299484
aF0.06321290135383606
aF0.04492904990911484
aF0.06007377803325653
aF0.06050262600183487
aF0.05706628039479256
aF0.0548996739089489
aF0.05164903402328491
aF0.06577518582344055
aF0.05066891759634018
aF0.04873654991388321
aF0.0673094242811203
aF0.04799653962254524
aF0.06883075833320618
aF0.08106578141450882
aF0.05808961018919945
aF0.06642180681228638
aF0.04900708422064781
aF0.06687023490667343
aF0.0598902590572834
aF0.05032889172434807
aF0.06054629758000374
aF0.04858449846506119
aF0.06354154646396637
aF0.055229075253009796
aF0.050963882356882095
aF0.05121578648686409
aF0.04550892859697342
aF0.06731794774532318
aF0.05520220473408699
aF0.07371414452791214
aF0.05189032852649689
aF0.056562867015600204
aF0.06028018891811371
aF0.05897580832242966
aF0.06153176352381706
aF0.06224186718463898
aF0.07143205404281616
aF0.06551169604063034
aF0.0556567907333374
aF0.05678686127066612
aF0.06535308063030243
aF0.0701531320810318
aF0.06630910187959671
aF0.05174420401453972
aF0.05707338824868202
aF0.04996686801314354
aF0.06752355396747589
aF0.06012660264968872
aF0.06960979849100113
aF0.052249807864427567
aF0.06187465786933899
aF0.06360473483800888
aF0.051450591534376144
aF0.058646310120821
aF0.05301758646965027
aF0.0867873951792717
aF0.0709073543548584
aF0.05949925258755684
aF0.07176890224218369
aF0.04742481932044029
aF0.07967373728752136
aF0.06587057560682297
aF0.052050016820430756
aF0.0689547136425972
aF0.051215872168540955
aF0.05594839155673981
aF0.05669402703642845
aF0.0571330189704895
aF0.06531694531440735
aF0.05771544575691223
aF0.07540230453014374
aF0.06550446152687073
aF0.07440385967493057
aF0.05048655346035957
aF0.0568222850561142
aF0.07960482686758041
aF0.06258832663297653
aF0.061198532581329346
aF0.08342966437339783
aF0.04534241929650307
aF0.059047624468803406
aF0.05446721613407135
aF0.06691429018974304
aF0.07035017758607864
aF0.051633115857839584
aF0.07254410535097122
aF0.074261374771595
aF0.0535418726503849
aF0.055860962718725204
aF0.06831946223974228
aF0.07715902477502823
aF0.05901182070374489
aF0.055836595594882965
aF0.050783805549144745
aF0.06233188509941101
aF0.06518261134624481
aF0.06031405180692673
aF0.0692676454782486
aF0.05537772551178932
aF0.06332968175411224
aF0.042718399316072464
aF0.05832892283797264
aF0.043471306562423706
aF0.056794676929712296
aF0.058248162269592285
aF0.057857073843479156
aF0.06403616815805435
aF0.03621963784098625
aF0.07098739594221115
aF0.05883684754371643
aF0.05243336781859398
aF0.06071097031235695
aF0.05806008726358414
aF0.06048307567834854
aF0.05354049801826477
aF0.05489692464470863
aF0.05036120489239693
aF0.061768222600221634
aF0.08587666600942612
aF0.06553351879119873
aF0.06287748366594315
aF0.0735316276550293
aF0.06212920695543289
aF0.05974448099732399
aF0.06764870136976242
aF0.07065875828266144
aF0.059751782566308975
aF0.059318531304597855
aF0.06623449176549911
aF0.054451555013656616
aF0.05917821079492569
aF0.060477063059806824
aF0.0641489252448082
aF0.06714210659265518
aF0.07298094034194946
aF0.060384295880794525
aF0.060790158808231354
aF0.05468802899122238
aF0.06848249584436417
aF0.05986976996064186
aF0.053307175636291504
aF0.06803978979587555
aF0.05528891831636429
aF0.04974858835339546
aF0.059165626764297485
aF0.05716969072818756
aF0.06149426847696304
aF0.07258071005344391
aF0.04399817809462547
aF0.06528575718402863
aF0.06698819249868393
aF0.05248479172587395
aF0.06432783603668213
aF0.057194340974092484
aF0.047151971608400345
aF0.05656636133790016
aF0.07140683382749557
aF0.06670355796813965
aF0.07154000550508499
aF0.05784396454691887
aF0.05956956371665001
aF0.054571326822042465
aF0.05119398981332779
aF0.05618145689368248
aF0.041897229850292206
aF0.05643413960933685
aF0.06807829439640045
aF0.047801047563552856
aF0.05024704709649086
aF0.0666394755244255
aF0.05638676881790161
aF0.07007148861885071
aF0.05878263711929321
aF0.04141897335648537
aF0.0627126693725586
aF0.053304221481084824
aF0.058151453733444214
aF0.10038332641124725
aF0.07756262272596359
aF0.05632149055600166
aF0.0753222405910492
aF0.05318323150277138
aF0.05289100110530853
aF0.041594650596380234
aF0.0644257441163063
aF0.06467455625534058
aF0.059094615280628204
aF0.06163476034998894
aF0.07317262142896652
aF0.06897362321615219
aF0.06594909727573395
aF0.07830329239368439
aF0.06931450963020325
aF0.04953154921531677
aF0.06199478358030319
aF0.05857490748167038
aF0.06684274226427078
aF0.06520555168390274
aF0.04656790941953659
aF0.056105636060237885
aF0.0541016161441803
aF0.05732373520731926
aF0.06782114505767822
aF0.05629698187112808
aF0.044626541435718536
aF0.033940497785806656
aF0.05457806959748268
aF0.06247438117861748
aF0.051604002714157104
aF0.06250288337469101
aF0.0621553473174572
aF0.046160515397787094
aF0.06728357821702957
aF0.06474339216947556
aF0.054714687168598175
aF0.06245991960167885
aF0.0622907429933548
aF0.06772930175065994
aF0.06212848797440529
aF0.05510472133755684
aF0.055204689502716064
aF0.03928668051958084
aF0.04955705627799034
aF0.06390967965126038
aF0.06434332579374313
aF0.046149227768182755
aF0.06347959488630295
aF0.07512259483337402
aF0.05462729185819626
aF0.05323420464992523
aF0.055234234780073166
aF0.04998527467250824
aF0.06427843868732452
aF0.06108187139034271
aF0.08534516394138336
aF0.07489525526762009
aF0.04034565016627312
aF0.0648147314786911
aF0.03803045302629471
aF0.05455538257956505
aF0.06680558621883392
aF0.07513273507356644
aF0.05962005630135536
aF0.07005469501018524
aF0.07474709302186966
aF0.07167133688926697
aF0.057139817625284195
aF0.0406687967479229
aF0.043738242238759995
aF0.052455488592386246
aF0.07526368647813797
aF0.054360758513212204
aF0.07826657593250275
aF0.049507301300764084
aF0.07230164855718613
aF0.08128730207681656
aF0.07493360340595245
aF0.06378722190856934
aF0.05666637048125267
aF0.06955838203430176
aF0.061176277697086334
aF0.07238501310348511
aF0.06862970441579819
aF0.05447188392281532
aF0.04630035161972046
aF0.04953964054584503
aF0.07047119736671448
aF0.053425442427396774
aF0.06152356415987015
aF0.052514273673295975
aF0.07376956939697266
aF0.073729507625103
aF0.05296946316957474
aF0.058491773903369904
aF0.050341807305812836
aF0.05687696114182472
aF0.07286085933446884
aF0.05451597645878792
aF0.07197265326976776
aF0.05889080464839935
aF0.05066373944282532
aF0.06050780415534973
aF0.06994947791099548
aF0.06869515031576157
aF0.06625974923372269
aF0.0428268127143383
aF0.06304841488599777
aF0.05663669854402542
aF0.061959490180015564
aF0.05244795233011246
aF0.051810603588819504
aF0.07156535238027573
aF0.05517919734120369
aF0.04617925360798836
aF0.06896156072616577
aF0.04607701674103737
aF0.07251520454883575
aF0.08582259714603424
aF0.05762792378664017
aF0.06792042404413223
aF0.05511888116598129
aF0.0648718923330307
aF0.06297696381807327
aF0.05426812544465065
aF0.061117738485336304
aF0.04714335501194
aF0.06244489178061485
aF0.053279537707567215
aF0.04847468063235283
aF0.05010272189974785
aF0.04504237323999405
aF0.06595417857170105
aF0.056796394288539886
aF0.07741130143404007
aF0.05382683873176575
aF0.0571681372821331
aF0.060578588396310806
aF0.05957586690783501
aF0.06366002559661865
aF0.061455924063920975
aF0.0676761344075203
aF0.06504067778587341
aF0.050154440104961395
aF0.054872266948223114
aF0.06853825598955154
aF0.0677715465426445
aF0.061834268271923065
aF0.04798879474401474
aF0.05564427375793457
aF0.05214252322912216
aF0.06811549514532089
aF0.06194479763507843
aF0.06898865848779678
aF0.056250348687171936
aF0.05976687744259834
aF0.06014814227819443
aF0.05224334076046944
aF0.057180255651474
aF0.051521625369787216
aF0.08594603091478348
aF0.07311107963323593
aF0.05325264856219292
aF0.0704028382897377
aF0.05041079968214035
aF0.07815729826688766
aF0.06256832182407379
aF0.04408396780490875
aF0.06753426790237427
aF0.05118705704808235
aF0.05852821096777916
aF0.054530251771211624
aF0.050152283161878586
aF0.060675449669361115
aF0.054240159690380096
aF0.07474830746650696
aF0.06065543740987778
aF0.07489221543073654
aF0.04864190146327019
aF0.05677468329668045
aF0.08246134966611862
aF0.06523796170949936
aF0.06037528067827225
aF0.07990092039108276
aF0.04392543062567711
aF0.05716252326965332
aF0.053908754140138626
aF0.06395479291677475
aF0.06761480867862701
aF0.05594150349497795
aF0.0707831084728241
aF0.07058285176753998
aF0.053886111825704575
aF0.05731187388300896
aF0.06386698782444
aF0.07933037728071213
aF0.0578308179974556
aF0.05714670196175575
aF0.05573328211903572
aF0.056449003517627716
aF0.065250925719738
aF0.057964026927948
aF0.07156390696763992
aF0.05435098335146904
aF0.05941811203956604
aF0.042404599487781525
aF0.060593798756599426
aF0.044142600148916245
aF0.05739874020218849
aF0.05782140791416168
aF0.0625365599989891
aF0.05924668163061142
aF0.04076629504561424
aF0.07097108662128448
aF0.05669066682457924
aF0.051583461463451385
aF0.059211794286966324
aF0.055493179708719254
aF0.06031879037618637
aF0.052637241780757904
aF0.057172663509845734
aF0.049949828535318375
aF0.06284550577402115
aF0.07878635823726654
aF0.06789535284042358
aF0.06124669313430786
aF0.07332230359315872
aF0.06339824199676514
aF0.060982782393693924
aF0.06773267686367035
aF0.06790788471698761
aF0.056844666600227356
aF0.06137978285551071
aF0.06775759160518646
aF0.05196225643157959
aF0.05432775244116783
aF0.06144584342837334
aF0.06367802619934082
aF0.07009238749742508
aF0.06711296737194061
aF0.06008365750312805
aF0.061096686869859695
aF0.055578481405973434
aF0.07298770546913147
aF0.06055281311273575
aF0.05373850464820862
aF0.07082958519458771
aF0.05463114380836487
aF0.05536342039704323
aF0.05512293428182602
aF0.0604608952999115
aF0.06282653659582138
aF0.0716497004032135
aF0.043749526143074036
aF0.06302444636821747
aF0.0663493350148201
aF0.05377201735973358
aF0.06638775765895844
aF0.056559037417173386
aF0.04704376310110092
aF0.059561919420957565
aF0.07028026878833771
aF0.06259692460298538
aF0.06969131529331207
aF0.060252729803323746
aF0.06327755749225616
aF0.05318266153335571
aF0.05748674273490906
aF0.05588104575872421
aF0.04398932680487633
aF0.055479757487773895
aF0.0653434619307518
aF0.04701540619134903
aF0.05210300534963608
aF0.06730304658412933
aF0.05737927556037903
aF0.07259897887706757
aF0.061953019350767136
aF0.04268430918455124
aF0.06528222560882568
aF0.05443716049194336
aF0.057356759905815125
aF0.1043185293674469
aF0.07892365753650665
aF0.055960819125175476
aF0.07682298868894577
aF0.05313698574900627
aF0.05207504704594612
aF0.04503942281007767
aF0.06656770408153534
aF0.0647503063082695
aF0.054501064121723175
aF0.05639791488647461
aF0.07639237493276596
aF0.06077814847230911
aF0.06407546252012253
aF0.06915666908025742
aF0.0701705738902092
aF0.0468994677066803
aF0.057857535779476166
aF0.05805620551109314
aF0.06116313487291336
aF0.058662887662649155
aF0.04467646777629852
aF0.052777234464883804
aF0.05582042783498764
aF0.057795096188783646
aF0.0696183294057846
aF0.05910276994109154
aF0.04538676515221596
aF0.033001609146595
aF0.05244925618171692
aF0.05816659331321716
aF0.05299769341945648
aF0.06222648173570633
aF0.061203483492136
aF0.04746159911155701
aF0.06506216526031494
aF0.06505520641803741
aF0.055927734822034836
aF0.06027252972126007
aF0.0635019913315773
aF0.06281431764364243
aF0.06107787787914276
aF0.05499088019132614
aF0.05586692690849304
aF0.041532088071107864
aF0.051104217767715454
aF0.06307654082775116
aF0.06753980368375778
aF0.04354901611804962
aF0.05815143138170242
aF0.07294581085443497
aF0.05646974965929985
aF0.058708399534225464
aF0.05299742892384529
aF0.04442528262734413
aF0.06096186488866806
aF0.057067956775426865
aF0.08600310981273651
aF0.07341394573450089
aF0.03839397802948952
aF0.059580158442258835
aF0.03984686732292175
aF0.054642632603645325
aF0.0644230842590332
aF0.07329952716827393
aF0.055919479578733444
aF0.06888262182474136
aF0.07743692398071289
aF0.0654333308339119
aF0.05893755331635475
aF0.04626482352614403
aF0.042564794421195984
aF0.05291492119431496
aF0.07777680456638336
aF0.056367065757513046
aF0.07761119306087494
aF0.04800575226545334
aF0.07324976474046707
aF0.08172532916069031
aF0.06934551149606705
aF0.06609267741441727
aF0.05202030390501022
aF0.06925671547651291
aF0.06106732413172722
aF0.07590160518884659
aF0.06628896296024323
aF0.053619638085365295
aF0.04854479804635048
aF0.048137739300727844
aF0.06722204387187958
aF0.05506277456879616
aF0.062031131237745285
aF0.054366759955883026
aF0.06827614456415176
aF0.07833002507686615
aF0.052120327949523926
aF0.054242104291915894
aF0.04877182096242905
aF0.05769241973757744
aF0.07187552750110626
aF0.05313127860426903
aF0.07865221798419952
aF0.05863642692565918
aF0.05344448238611221
aF0.063848115503788
aF0.0628984346985817
aF0.06648290902376175
aF0.06512240320444107
aF0.04204433038830757
aF0.05864248797297478
aF0.06230490282177925
aF0.05947602912783623
aF0.05576267093420029
aF0.05352693051099777
aF0.06390313804149628
aF0.05322078615427017
aF0.047599080950021744
aF0.06976229697465897
aF0.04711923375725746
aF0.06513144820928574
aF0.08157035708427429
aF0.059349700808525085
aF0.06526797264814377
aF0.05179193243384361
aF0.06709549576044083
aF0.06465166062116623
aF0.054862696677446365
aF0.06226329132914543
aF0.05048060789704323
aF0.06235702335834503
aF0.05494670942425728
aF0.050674378871917725
aF0.0503876619040966
aF0.04649669677019119
aF0.06669241935014725
aF0.06184583157300949
aF0.07171916216611862
aF0.05313121899962425
aF0.05752618983387947
aF0.05958368256688118
aF0.05772245675325394
aF0.06515983492136002
aF0.058714523911476135
aF0.06485264748334885
aF0.06679949909448624
aF0.05253851041197777
aF0.05314340814948082
aF0.0677650049328804
aF0.06902427226305008
aF0.06488583981990814
aF0.049885284155607224
aF0.055183470249176025
aF0.052461203187704086
aF0.06767135858535767
aF0.06108241528272629
aF0.06594014167785645
aF0.05520635470747948
aF0.06335930526256561
aF0.06194056198000908
aF0.05267728492617607
aF0.058164145797491074
aF0.05402925983071327
aF0.08816768229007721
aF0.07330138236284256
aF0.05792906880378723
aF0.06942713260650635
aF0.04948640242218971
aF0.07678123563528061
aF0.06720730662345886
aF0.05015299841761589
aF0.0701730027794838
aF0.05225162208080292
aF0.0626281201839447
aF0.05464671179652214
aF0.055302418768405914
aF0.061273276805877686
aF0.061156656593084335
aF0.0733947828412056
aF0.06058032810688019
aF0.07849285751581192
aF0.051373761147260666
aF0.05791972950100899
aF0.08120179921388626
aF0.06266404688358307
aF0.059120021760463715
aF0.08183922618627548
aF0.04420318081974983
aF0.05866310000419617
aF0.05549914762377739
aF0.06291032582521439
aF0.0681358277797699
aF0.055180661380290985
aF0.07020427286624908
aF0.07367795705795288
aF0.054133787751197815
aF0.05798352509737015
aF0.06744274497032166
aF0.07924728095531464
aF0.059588074684143066
aF0.051120322197675705
aF0.04998433589935303
aF0.05523894727230072
aF0.06472565233707428
aF0.06306802481412888
aF0.06930484622716904
aF0.05577729269862175
aF0.06727384775876999
aF0.040763646364212036
aF0.06017006188631058
aF0.04465264081954956
aF0.054221875965595245
aF0.05453244224190712
aF0.06033846735954285
aF0.06098661571741104
aF0.0375710092484951
aF0.075123630464077
aF0.056321319192647934
aF0.05203709378838539
aF0.06008988246321678
aF0.05576692149043083
aF0.059338852763175964
aF0.05666051059961319
aF0.05800745636224747
aF0.049365658313035965
aF0.06012396886944771
aF0.08179567754268646
aF0.07145591825246811
aF0.06017587333917618
aF0.07027831673622131
aF0.060971491038799286
aF0.06327494233846664
aF0.06528870761394501
aF0.06946451216936111
aF0.05868292972445488
aF0.05587680637836456
aF0.06987008452415466
aF0.05116936191916466
aF0.059049613773822784
aF0.06280684471130371
aF0.05885442718863487
aF0.07136200368404388
aF0.06776170432567596
aF0.0638585239648819
aF0.05829057842493057
aF0.0548337884247303
aF0.07453332096338272
aF0.060176245868206024
aF0.0554947704076767
aF0.07250837236642838
aF0.05719105899333954
aF0.05276237055659294
aF0.05707038938999176
aF0.05551951006054878
aF0.06209626793861389
aF0.06756363064050674
aF0.04389408975839615
aF0.05923693999648094
aF0.06507806479930878
aF0.053382713347673416
aF0.06306128948926926
aF0.05633464828133583
aF0.0485551618039608
aF0.05828993022441864
aF0.07520011067390442
aF0.05956682562828064
aF0.07382428646087646
aF0.06103380396962166
aF0.060189198702573776
aF0.050748441368341446
aF0.050562288612127304
aF0.05687863752245903
aF0.038761962205171585
aF0.05801081284880638
aF0.06471838057041168
aF0.04678149148821831
aF0.05051621049642563
aF0.06621643900871277
aF0.053200408816337585
aF0.07167231291532516
aF0.05791287496685982
aF0.03871069848537445
aF0.060511939227581024
aF0.05756485089659691
aF0.05442040041089058
aF0.10438298434019089
aF0.07275332510471344
aF0.057820405811071396
aF0.07436241954565048
aF0.05127529427409172
aF0.054831285029649734
aF0.044581182301044464
aF0.06880030035972595
aF0.06633239984512329
aF0.05740722641348839
aF0.05446527525782585
aF0.07702725380659103
aF0.06940987706184387
aF0.065512515604496
aF0.07574857771396637
aF0.0703258141875267
aF0.04700865224003792
aF0.05228651687502861
aF0.05675570294260979
aF0.06427048146724701
aF0.06154172867536545
aF0.04192287102341652
aF0.054653607308864594
aF0.049239382147789
aF0.05848456174135208
aF0.06701521575450897
aF0.06355597078800201
aF0.04514414072036743
aF0.03402266651391983
aF0.052832216024398804
aF0.0576704666018486
aF0.04992643743753433
aF0.061570052057504654
aF0.06314332038164139
aF0.04473024606704712
aF0.06692418456077576
aF0.06657726317644119
aF0.0565948486328125
aF0.059583880007267
aF0.05914812162518501
aF0.06246350705623627
aF0.06762566417455673
aF0.05287136137485504
aF0.05434425175189972
aF0.041138023138046265
aF0.04793260619044304
aF0.06367544084787369
aF0.062206070870161057
aF0.04318644106388092
aF0.05829732120037079
aF0.07356691360473633
aF0.05313932150602341
aF0.05901920050382614
aF0.05307040736079216
aF0.04412955045700073
aF0.060646478086709976
aF0.05979274585843086
aF0.08526681363582611
aF0.06877012550830841
aF0.03817756846547127
aF0.061199188232421875
aF0.03866330906748772
aF0.05285515636205673
aF0.0666317567229271
aF0.0722440853714943
aF0.05794656649231911
aF0.06807205826044083
aF0.07985467463731766
aF0.06286262720823288
aF0.05532481148838997
aF0.04056302458047867
aF0.04510057717561722
aF0.05450161173939705
aF0.07773423194885254
aF0.060009684413671494
aF0.07848846167325974
aF0.0472513884305954
aF0.0690453052520752
aF0.07630403339862823
aF0.06855528801679611
aF0.06244002655148506
aF0.05180809274315834
aF0.07361743599176407
aF0.06340610235929489
aF0.07369805127382278
aF0.06645645201206207
aF0.050433091819286346
aF0.046085719019174576
aF0.05050819367170334
aF0.07152717560529709
aF0.0582292303442955
aF0.05993878096342087
aF0.055855635553598404
aF0.07126384973526001
aF0.07732504606246948
aF0.05303005874156952
aF0.05347732454538345
aF0.05081341043114662
aF0.05996575206518173
aF0.06950536370277405
aF0.05641359090805054
aF0.07295578718185425
aF0.05723933130502701
aF0.05159872770309448
aF0.062135521322488785
aF0.06716987490653992
aF0.06665801256895065
aF0.06178909167647362
aF0.045438144356012344
aF0.06394977122545242
aF0.05864391103386879
aF0.06045909225940704
aF0.04959198832511902
aF0.052594833076000214
aF0.0708903968334198
aF0.05135052651166916
aF0.05103564262390137
aF0.06800821423530579
aF0.04760730266571045
aF0.06547398865222931
aF0.07993414998054504
aF0.05760163441300392
aF0.06614428758621216
aF0.05179913341999054
aF0.06701785326004028
aF0.06541941314935684
aF0.05087205767631531
aF0.06192460656166077
aF0.05154705420136452
aF0.060578055679798126
aF0.057529762387275696
aF0.04827277362346649
aF0.05110436677932739
aF0.04617670923471451
aF0.06787610054016113
aF0.05841778963804245
aF0.07333163172006607
aF0.054932788014411926
aF0.05524892359972
aF0.06002272292971611
aF0.059949494898319244
aF0.06353749334812164
aF0.06368884444236755
aF0.06913313269615173
aF0.06642945110797882
aF0.05158200487494469
aF0.05693412944674492
aF0.06533078849315643
aF0.0730508342385292
aF0.06130312383174896
aF0.05258170887827873
aF0.057712264358997345
aF0.05103195831179619
aF0.06697065383195877
aF0.06253506988286972
aF0.06696724146604538
aF0.05011266842484474
aF0.060677286237478256
aF0.060807209461927414
aF0.053912319242954254
aF0.05714323744177818
aF0.05373623967170715
aF0.09154719114303589
aF0.07280541956424713
aF0.05499788373708725
aF0.06830169260501862
aF0.046270351856946945
aF0.07555848360061646
aF0.06546621769666672
aF0.04963186755776405
aF0.06879869103431702
aF0.04984382912516594
aF0.06091941148042679
aF0.05444026365876198
aF0.0533282533288002
aF0.05813975632190704
aF0.05939614027738571
aF0.07594061642885208
aF0.0623929388821125
aF0.07431373745203018
aF0.04789777100086212
aF0.0561552569270134
aF0.08616293966770172
aF0.06268640607595444
aF0.058579180389642715
aF0.08396048843860626
aF0.04496999457478523
aF0.056400977075099945
aF0.056548357009887695
aF0.06306000053882599
aF0.07297338545322418
aF0.05675935000181198
aF0.07079453766345978
aF0.07179337739944458
aF0.05342099443078041
aF0.05854719504714012
aF0.06642427295446396
aF0.07616996020078659
aF0.05769764259457588
aF0.05583654344081879
aF0.05048864707350731
aF0.05643492564558983
aF0.06687720865011215
aF0.06173395365476608
aF0.07288674265146255
aF0.058407314121723175
aF0.057663608342409134
aF0.042821191251277924
aF0.06050858646631241
aF0.038732968270778656
aF0.05820268392562866
aF0.060089658945798874
aF0.061712317168712616
aF0.06286433339118958
aF0.04152586683630943
aF0.07034597545862198
aF0.055639080703258514
aF0.05032888427376747
aF0.05915086716413498
aF0.057677000761032104
aF0.06124655902385712
aF0.05294807627797127
aF0.05613796412944794
aF0.046460215002298355
aF0.06278346478939056
aF0.0799688920378685
aF0.07115425169467926
aF0.06457789242267609
aF0.07303552329540253
aF0.06016995757818222
aF0.05613793432712555
aF0.06327711045742035
aF0.0711270347237587
aF0.059229444712400436
aF0.055783841758966446
aF0.0695548951625824
aF0.05080881714820862
aF0.0589592270553112
aF0.06115385517477989
aF0.05768042057752609
aF0.06821931898593903
aF0.0695863738656044
aF0.06537942588329315
aF0.06035197153687477
aF0.05458270385861397
aF0.06987667083740234
aF0.05589090660214424
aF0.05038739740848541
aF0.07128456979990005
aF0.05687287822365761
aF0.05286678299307823
aF0.058756787329912186
aF0.05818847939372063
aF0.06107454374432564
aF0.07041891664266586
aF0.04044918343424797
aF0.06018007546663284
aF0.06527114659547806
aF0.05344630032777786
aF0.06116248667240143
aF0.058961693197488785
aF0.047925401479005814
aF0.0550362654030323
aF0.07261224091053009
aF0.05837516486644745
aF0.07023477554321289
aF0.061304718255996704
aF0.061102885752916336
aF0.05234869197010994
aF0.054271403700113297
aF0.05513421818614006
aF0.045227546244859695
aF0.053188495337963104
aF0.06224527209997177
aF0.04862198978662491
aF0.05370043218135834
aF0.06599635630846024
aF0.0562201552093029
aF0.0756334662437439
aF0.06300326436758041
aF0.03767083212733269
aF0.06328018009662628
aF0.058433327823877335
aF0.058479394763708115
aF0.10359710454940796
aF0.07604647427797318
aF0.05436469614505768
aF0.0740467756986618
aF0.05381971597671509
aF0.051760248839855194
aF0.04387574642896652
aF0.06682167947292328
aF0.06349301338195801
aF0.0555688738822937
aF0.05569697171449661
aF0.07644882798194885
aF0.0709451362490654
aF0.06560907512903214
aF0.07997961342334747
aF0.06939634680747986
aF0.04776211455464363
aF0.054636966437101364
aF0.05815371498465538
aF0.062227487564086914
aF0.06095200031995773
aF0.043428558856248856
aF0.05565899610519409
aF0.05397298187017441
aF0.056285466998815536
aF0.06413143873214722
aF0.05801137909293175
aF0.044425759464502335
aF0.03258560225367546
aF0.04995962232351303
aF0.05817160755395889
aF0.05285201221704483
aF0.06431268900632858
aF0.06373417377471924
aF0.047021426260471344
aF0.06712499260902405
aF0.06545852869749069
aF0.05532558262348175
aF0.06258482486009598
aF0.06236422434449196
aF0.0638388842344284
aF0.06541832536458969
aF0.05553283542394638
aF0.05348866805434227
aF0.04252656176686287
aF0.0486285574734211
aF0.06599010527133942
aF0.06029216945171356
aF0.04538477584719658
aF0.06121111288666725
aF0.07187549769878387
aF0.05572879686951637
aF0.05466688051819801
aF0.05308069288730621
aF0.046801500022411346
aF0.05951360613107681
aF0.05463768541812897
aF0.08639633655548096
aF0.07055775821208954
aF0.036995742470026016
aF0.06238109618425369
aF0.03818307816982269
aF0.055164940655231476
aF0.0706637054681778
aF0.06836016476154327
aF0.06304015964269638
aF0.06994352489709854
aF0.07581973820924759
aF0.06639529019594193
aF0.05562640354037285
aF0.04348331689834595
aF0.04391816258430481
aF0.05043221637606621
aF0.07818707078695297
aF0.05503160506486893
aF0.07869500666856766
aF0.05001875385642052
aF0.07183272391557693
aF0.07754041254520416
aF0.07087911665439606
aF0.06632424145936966
aF0.0528172142803669
aF0.07311094552278519
aF0.057884715497493744
aF0.07373515516519547
aF0.06740321964025497
aF0.054311227053403854
aF0.045216288417577744
aF0.04810584709048271
aF0.07209724187850952
aF0.056519802659749985
aF0.06715819984674454
aF0.054352253675460815
aF0.07215698808431625
aF0.07626085728406906
aF0.05138315260410309
aF0.057064224034547806
aF0.05023402348160744
aF0.05357411503791809
aF0.06837012618780136
aF0.05408613756299019
aF0.07256270945072174
aF0.06235535815358162
aF0.05468088760972023
aF0.065566286444664
aF0.06361477822065353
aF0.06824585050344467
aF0.06106003746390343
aF0.044303227216005325
aF0.05809030309319496
aF0.05455644056200981
aF0.057959865778684616
aF0.05543842166662216
aF0.05031886696815491
aF0.0679478868842125
aF0.055304259061813354
aF0.04977567121386528
aF0.06752260774374008
aF0.04842870309948921
aF0.07210823893547058
aF0.08044380694627762
aF0.05364902317523956
aF0.0623069629073143
aF0.05207214131951332
aF0.06436153501272202
aF0.062003277242183685
aF0.05147846043109894
aF0.060147475451231
aF0.049832697957754135
aF0.06404654681682587
aF0.054575443267822266
aF0.04667780175805092
aF0.051825717091560364
aF0.046585895121097565
aF0.06702636182308197
aF0.057788074016571045
aF0.06997840851545334
aF0.05210530012845993
aF0.05702514946460724
aF0.0602019727230072
aF0.05877494066953659
aF0.06339126825332642
aF0.05934533849358559
aF0.0725480318069458
aF0.06253725290298462
aF0.052575476467609406
aF0.057060908526182175
aF0.07074254751205444
aF0.06761644035577774
aF0.0628981962800026
aF0.05055009201169014
aF0.057190217077732086
aF0.050563979893922806
aF0.06708291172981262
aF0.06021912023425102
aF0.06787971407175064
aF0.05055268108844757
aF0.06031857058405876
aF0.06451527029275894
aF0.05129256844520569
aF0.06160023808479309
aF0.05606140196323395
aF0.0831829085946083
aF0.07148588448762894
aF0.06143536418676376
aF0.07083174586296082
aF0.047653377056121826
aF0.07276873290538788
aF0.06696651130914688
aF0.04722895473241806
aF0.0648888349533081
aF0.053569816052913666
aF0.059878669679164886
aF0.05548715963959694
aF0.052377764135599136
aF0.06265381723642349
aF0.054951682686805725
aF0.07392531633377075
aF0.05965772271156311
aF0.07801560312509537
aF0.04954037442803383
aF0.05680910497903824
aF0.08029493689537048
aF0.06696749478578568
aF0.061252888292074203
aF0.07376433908939362
aF0.04616826772689819
aF0.052589721977710724
aF0.056285712867975235
aF0.06511110067367554
aF0.06842803955078125
aF0.0559537298977375
aF0.06672760099172592
aF0.07351096719503403
aF0.04913818836212158
aF0.06105826795101166
aF0.06535886973142624
aF0.08293945342302322
aF0.05822272598743439
aF0.056472036987543106
aF0.05239593982696533
aF0.051236435770988464
aF0.0640164166688919
aF0.06116519868373871
aF0.074451744556427
aF0.058074355125427246
aF0.05549228563904762
aF0.04387958347797394
aF0.05641012266278267
aF0.04429246485233307
aF0.05666907876729965
aF0.05603993684053421
aF0.06242991238832474
aF0.057308368384838104
aF0.039212580770254135
aF0.07072224467992783
aF0.05625520274043083
aF0.05273708701133728
aF0.05929980054497719
aF0.0557221844792366
aF0.057359062135219574
aF0.052337709814310074
aF0.056721337139606476
aF0.0482235886156559
aF0.060456782579422
aF0.07973464578390121
aF0.06369836628437042
aF0.0628734603524208
aF0.07186682522296906
aF0.06297175586223602
aF0.05999325215816498
aF0.06452822685241699
aF0.06617482006549835
aF0.05800037086009979
aF0.05384889617562294
aF0.067748062312603
aF0.052577801048755646
aF0.05776219442486763
aF0.06397581845521927
aF0.05900482460856438
aF0.06950537115335464
aF0.06824230402708054
aF0.06047408655285835
aF0.06149490177631378
aF0.053645431995391846
aF0.06869708001613617
aF0.05956745520234108
aF0.05208989605307579
aF0.06806755810976028
aF0.050731297582387924
aF0.051477544009685516
aF0.06001247465610504
aF0.059710368514060974
aF0.06566844135522842
aF0.0718180239200592
aF0.042833734303712845
aF0.06125194579362869
aF0.06715983897447586
aF0.05504373461008072
aF0.06580939143896103
aF0.05789875239133835
aF0.045508965849876404
aF0.060393836349248886
aF0.0726972296833992
aF0.0611039400100708
aF0.07037398219108582
aF0.06022747978568077
aF0.06195740029215813
aF0.05421270802617073
aF0.052709441632032394
aF0.05324380099773407
aF0.04238099604845047
aF0.053612835705280304
aF0.06652015447616577
aF0.0463227778673172
aF0.049105364829301834
aF0.07062719762325287
aF0.058148402720689774
aF0.07485964894294739
aF0.05998203158378601
aF0.03727900609374046
aF0.05927211046218872
aF0.05646226182579994
aF0.05536120384931564
aF0.1058906763792038
aF0.07547864317893982
aF0.0550568550825119
aF0.07425480335950851
aF0.05463268980383873
aF0.05448094755411148
aF0.04358275607228279
aF0.07109282165765762
aF0.06313440948724747
aF0.05767519772052765
aF0.054688651114702225
aF0.07096351683139801
aF0.06497650593519211
aF0.06577680259943008
aF0.07481593638658524
aF0.06827541440725327
aF0.04813477024435997
aF0.05692578852176666
aF0.05435410887002945
aF0.06545861065387726
aF0.06463079154491425
aF0.043458133935928345
aF0.055761147290468216
aF0.05263874679803848
aF0.057391054928302765
aF0.06518325209617615
aF0.05879542604088783
aF0.04422508552670479
aF0.033320073038339615
aF0.051906079053878784
aF0.05972842872142792
aF0.050174929201602936
aF0.06497660279273987
aF0.06496871262788773
aF0.04837751388549805
aF0.06296797096729279
aF0.06105422601103783
aF0.0551111213862896
aF0.06331464648246765
aF0.059805307537317276
aF0.06197524070739746
aF0.06457852572202682
aF0.04831254109740257
aF0.0554463192820549
aF0.04102259874343872
aF0.04796347767114639
aF0.06288667768239975
aF0.06181921437382698
aF0.04723057895898819
aF0.057798855006694794
aF0.07336536794900894
aF0.05587649345397949
aF0.05618699640035629
aF0.052358780056238174
aF0.04494144394993782
aF0.057047195732593536
aF0.057650450617074966
aF0.08591213822364807
aF0.06893861293792725
aF0.04068522900342941
aF0.06097446382045746
aF0.03898246958851814
aF0.05184486508369446
aF0.06522626429796219
aF0.0698498860001564
aF0.05760859325528145
aF0.06444305181503296
aF0.07216187566518784
aF0.06811431795358658
aF0.05740227550268173
aF0.03925486281514168
aF0.04666551575064659
aF0.05185627192258835
aF0.07659756392240524
aF0.05858122184872627
aF0.07630671560764313
aF0.04914846643805504
aF0.07097453624010086
aF0.0760829895734787
aF0.07400725036859512
aF0.06397750973701477
aF0.0513928197324276
aF0.06933172047138214
aF0.06306609511375427
aF0.07345771789550781
aF0.06660716235637665
aF0.052546728402376175
aF0.04550920054316521
aF0.04853009432554245
aF0.07031475007534027
aF0.056996434926986694
aF0.06395863741636276
aF0.05337774008512497
aF0.07053013145923615
aF0.07495670020580292
aF0.05028773471713066
aF0.058251067996025085
aF0.0517207533121109
aF0.05541945993900299
aF0.07151340693235397
aF0.05629168450832367
aF0.0740063264966011
aF0.06056644767522812
aF0.05238974839448929
aF0.0630815401673317
aF0.0632653534412384
aF0.06726320832967758
aF0.061140310019254684
aF0.045704204589128494
aF0.059032537043094635
aF0.05521886423230171
aF0.06510064005851746
aF0.05413969233632088
aF0.051011234521865845
aF0.06756284087896347
aF0.05676008760929108
aF0.04495606571435928
aF0.06808508187532425
aF0.04783255606889725
aF0.06407496333122253
aF0.08089559525251389
aF0.05735577642917633
aF0.06128574162721634
aF0.05313831567764282
aF0.06590455025434494
aF0.0641026645898819
aF0.05333007872104645
aF0.058509521186351776
aF0.05405810475349426
aF0.06349481642246246
aF0.05562258139252663
aF0.04905388504266739
aF0.04934658110141754
aF0.04647865891456604
aF0.061274245381355286
aF0.06072557717561722
aF0.07299081981182098
aF0.055286113172769547
aF0.053064025938510895
aF0.06446509808301926
aF0.05732477828860283
aF0.06123984977602959
aF0.06008411571383476
aF0.07069490849971771
aF0.06369774043560028
aF0.047178853303194046
aF0.056628722697496414
aF0.06748022884130478
aF0.06703710556030273
aF0.0686139166355133
aF0.0496198944747448
aF0.055791523307561874
aF0.049259528517723083
aF0.07087011635303497
aF0.06250246614217758
aF0.06775950640439987
aF0.05445149913430214
aF0.05900343880057335
aF0.06279709190130234
aF0.05078187957406044
aF0.06026787683367729
aF0.053442347794771194
aF0.09014023095369339
aF0.07028792053461075
aF0.05590337887406349
aF0.0708061084151268
aF0.048806801438331604
aF0.07267806679010391
aF0.06439230591058731
aF0.05020948499441147
aF0.06662220507860184
aF0.050376955419778824
aF0.05815001577138901
aF0.057800959795713425
aF0.0539574921131134
aF0.061632584780454636
aF0.05991104245185852
aF0.07292839139699936
aF0.05384567379951477
aF0.07798506319522858
aF0.0474204383790493
aF0.054196279495954514
aF0.0804278552532196
aF0.06352746486663818
aF0.05875244364142418
aF0.07954701036214828
aF0.04310976341366768
aF0.06015316769480705
aF0.05703277140855789
aF0.06266073137521744
aF0.07087048888206482
aF0.058047015219926834
aF0.07099437713623047
aF0.07471082359552383
aF0.05670521408319473
aF0.05582581087946892
aF0.061886370182037354
aF0.08121062815189362
aF0.060078151524066925
aF0.05084247887134552
aF0.05392088741064072
aF0.05866152048110962
aF0.0591777004301548
aF0.062040384858846664
aF0.06976799666881561
aF0.056644704192876816
aF0.06315888464450836
aF0.04185810685157776
aF0.06147841364145279
aF0.04282498359680176
aF0.05688267946243286
aF0.059916943311691284
aF0.062344979494810104
aF0.06174558028578758
aF0.040179528295993805
aF0.07282134890556335
aF0.0579681470990181
aF0.048691123723983765
aF0.06363565474748611
aF0.053659744560718536
aF0.05855312943458557
aF0.054650139063596725
aF0.05960715189576149
aF0.04451665282249451
aF0.05599969998002052
aF0.07811763137578964
aF0.06809273362159729
aF0.060504112392663956
aF0.07065720856189728
aF0.06468719989061356
aF0.06114749610424042
aF0.06609687209129333
aF0.0695187970995903
aF0.05601910129189491
aF0.054451532661914825
aF0.07140249758958817
aF0.05078887194395065
aF0.058338601142168045
aF0.05684806779026985
aF0.05542820319533348
aF0.06962233036756516
aF0.06644807755947113
aF0.06231888756155968
aF0.06331091374158859
aF0.055040471255779266
aF0.07102387398481369
aF0.05705489590764046
aF0.05067472532391548
aF0.07048915326595306
aF0.05599195510149002
aF0.04681610316038132
aF0.06027672067284584
aF0.06023585796356201
aF0.06445164233446121
aF0.06916783004999161
aF0.03986501693725586
aF0.06328856945037842
aF0.06446805596351624
aF0.051524050533771515
aF0.06532066315412521
aF0.05891423299908638
aF0.04508090391755104
aF0.0540890246629715
aF0.07104018330574036
aF0.06725557893514633
aF0.07144564390182495
aF0.06197604164481163
aF0.06301075965166092
aF0.05427999049425125
aF0.05166388675570488
aF0.05749983713030815
aF0.03710968419909477
aF0.058126188814640045
aF0.06420314311981201
aF0.0483824722468853
aF0.054491713643074036
aF0.06906073540449142
aF0.05534019693732262
aF0.07409067451953888
aF0.06354192644357681
aF0.03864491358399391
aF0.05753394216299057
aF0.05749180167913437
aF0.0547906830906868
aF0.10372725129127502
aF0.07245384156703949
aF0.05529177561402321
aF0.07237347960472107
aF0.05592428892850876
aF0.05551035702228546
aF0.044645581394433975
aF0.06536226719617844
aF0.06387420743703842
aF0.060607556253671646
aF0.05704784020781517
aF0.07163635641336441
aF0.06289287656545639
aF0.06929956376552582
aF0.07602477818727493
aF0.06841300427913666
aF0.046545855700969696
aF0.06055237352848053
aF0.05661903694272041
aF0.06601005047559738
aF0.06177699565887451
aF0.04335961863398552
aF0.055453281849622726
aF0.04740476980805397
aF0.05464079976081848
aF0.0650956779718399
aF0.05590089038014412
aF0.042339880019426346
aF0.03360366076231003
aF0.05046393722295761
aF0.05498283728957176
aF0.05515072122216225
aF0.0666191428899765
aF0.06323034316301346
aF0.047202032059431076
aF0.0652070939540863
aF0.06187184527516365
aF0.055453263223171234
aF0.06083274260163307
aF0.0588071346282959
aF0.06240999326109886
aF0.064418725669384
aF0.053362518548965454
aF0.05487591028213501
aF0.04058362916111946
aF0.04661284014582634
aF0.06118939816951752
aF0.060964275151491165
aF0.04496055468916893
aF0.0628194510936737
aF0.07659655064344406
aF0.05258707329630852
aF0.05688910931348801
aF0.054875634610652924
aF0.0472470223903656
aF0.06462109088897705
aF0.058241892606019974
aF0.08128567039966583
aF0.06931474059820175
aF0.0397869236767292
aF0.06083502620458603
aF0.03767294064164162
aF0.05573843792080879
aF0.06634750217199326
aF0.07344911992549896
aF0.054362691938877106
aF0.06674207746982574
aF0.0756157785654068
aF0.06835899502038956
aF0.05937652662396431
aF0.041819460690021515
aF0.04404998570680618
aF0.05183839425444603
aF0.0733860582113266
aF0.05594351887702942
aF0.07701124250888824
aF0.04903177171945572
aF0.07146196067333221
aF0.07593636214733124
aF0.06946519017219543
aF0.06870242208242416
aF0.04946863651275635
aF0.06874818354845047
aF0.055861327797174454
aF0.0716109499335289
aF0.06668591499328613
aF0.05307316780090332
aF0.04301028326153755
aF0.049710169434547424
aF0.06962030380964279
aF0.05475090071558952
aF0.06062084436416626
aF0.05463944375514984
aF0.06994248926639557
aF0.06960414350032806
aF0.05159955471754074
aF0.055597055703401566
aF0.04753376916050911
aF0.052533507347106934
aF0.06919615715742111
aF0.052700068801641464
aF0.06982383131980896
aF0.061750270426273346
aF0.05199659988284111
aF0.06276995688676834
aF0.06379856169223785
aF0.0677766352891922
aF0.05817178264260292
aF0.044086240231990814
aF0.061317555606365204
aF0.059325769543647766
aF0.05649057775735855
aF0.05258554220199585
aF0.052117131650447845
aF0.06503915041685104
aF0.05195121839642525
aF0.049699410796165466
aF0.06646709144115448
aF0.04820871353149414
aF0.06622640788555145
aF0.07691474258899689
aF0.054939914494752884
aF0.06519594043493271
aF0.053323373198509216
aF0.06476365774869919
aF0.06615728884935379
aF0.05241677537560463
aF0.06370614469051361
aF0.05022473260760307
aF0.06271708756685257
aF0.052184704691171646
aF0.049129270017147064
aF0.0505048893392086
aF0.04647696018218994
aF0.06708583980798721
aF0.05575156584382057
aF0.07460260391235352
aF0.053546518087387085
aF0.05847158655524254
aF0.05825323984026909
aF0.05745391547679901
aF0.06290465593338013
aF0.06345032900571823
aF0.07007080316543579
aF0.06582271307706833
aF0.052363112568855286
aF0.05319437384605408
aF0.06726669520139694
aF0.06670616567134857
aF0.06540118157863617
aF0.04738232120871544
aF0.05605464428663254
aF0.047736138105392456
aF0.0699884220957756
aF0.05924519523978233
aF0.060567766427993774
aF0.056048113852739334
aF0.0641997754573822
aF0.06017831340432167
aF0.053251467645168304
aF0.059874072670936584
aF0.052037592977285385
aF0.08768273890018463
aF0.07251003384590149
aF0.05824859067797661
aF0.06515932083129883
aF0.04565104842185974
aF0.07840842753648758
aF0.06752526760101318
aF0.04744267463684082
aF0.07125473022460938
aF0.04857420176267624
aF0.05983608588576317
aF0.054221414029598236
aF0.054044194519519806
aF0.058915622532367706
aF0.057289209216833115
aF0.0764148086309433
aF0.05823401361703873
aF0.07630517333745956
aF0.05262810364365578
aF0.056705325841903687
aF0.07835522294044495
aF0.06598321348428726
aF0.0569288395345211
aF0.07794808596372604
aF0.045541249215602875
aF0.0556844137609005
aF0.056262191385030746
aF0.05754689872264862
aF0.07016783207654953
aF0.05927310138940811
aF0.07143865525722504
aF0.07256802171468735
aF0.0525221973657608
aF0.05805943161249161
aF0.062193360179662704
aF0.08264146000146866
aF0.05659600719809532
aF0.055485185235738754
aF0.053444769233465195
aF0.05411801487207413
aF0.06454948335886002
aF0.05873272195458412
aF0.07273101061582565
aF0.05709913745522499
aF0.061707932502031326
aF0.043203335255384445
aF0.05963856354355812
aF0.04279623553156853
aF0.058109525591135025
aF0.05659789592027664
aF0.05891873687505722
aF0.05782363563776016
aF0.03812211751937866
aF0.07245216518640518
aF0.05517106503248215
aF0.04894139990210533
aF0.05926254019141197
aF0.05206486955285072
aF0.05877714976668358
aF0.051787931472063065
aF0.05268552899360657
aF0.04505965858697891
aF0.0543573796749115
aF0.08150173723697662
aF0.06714639067649841
aF0.06104237586259842
aF0.06847220659255981
aF0.06125469505786896
aF0.060004960745573044
aF0.0673823356628418
aF0.06640567630529404
aF0.057380594313144684
aF0.05402989685535431
aF0.06786023080348969
aF0.04786626622080803
aF0.058185726404190063
aF0.05947991833090782
aF0.059211745858192444
aF0.07184822857379913
aF0.06826354563236237
aF0.05761903151869774
aF0.06367884576320648
aF0.050505898892879486
aF0.07004788517951965
aF0.058798134326934814
aF0.05290013179183006
aF0.0709904357790947
aF0.055068451911211014
aF0.05105718970298767
aF0.058862295001745224
aF0.0578913614153862
aF0.06221519410610199
aF0.07006756961345673
aF0.04170490428805351
aF0.06329305469989777
aF0.06509336084127426
aF0.053180377930402756
aF0.06471031904220581
aF0.05552893504500389
aF0.048482745885849
aF0.05784296989440918
aF0.07518918812274933
aF0.06161903217434883
aF0.0748269259929657
aF0.058387238532304764
aF0.06138627976179123
aF0.053352441638708115
aF0.05214879661798477
aF0.058931864798069
aF0.03933672606945038
aF0.05330934375524521
aF0.06755228340625763
aF0.04534092918038368
aF0.05005737394094467
aF0.06691542267799377
aF0.05517226830124855
aF0.07061945647001266
aF0.06298062205314636
aF0.041106559336185455
aF0.0632452517747879
aF0.06196696311235428
aF0.05646581947803497
aF0.10094372928142548
aF0.07331784814596176
aF0.05644020438194275
aF0.07529316842556
aF0.05677557364106178
aF0.054398201406002045
aF0.043963946402072906
aF0.06657375395298004
aF0.06253727525472641
aF0.05832231044769287
aF0.05854152515530586
aF0.07457355409860611
aF0.07234666496515274
aF0.06562066078186035
aF0.0773407593369484
aF0.0670986920595169
aF0.05015872046351433
aF0.056130729615688324
aF0.05648105591535568
aF0.06461521238088608
aF0.058056630194187164
aF0.044704366475343704
aF0.0540461540222168
aF0.050485383719205856
aF0.05161967873573303
aF0.06546850502490997
aF0.05647021532058716
aF0.043886326253414154
aF0.03425602614879608
aF0.05222862958908081
aF0.058394066989421844
a.